Archive member included to satisfy reference by file (symbol)

/home/kedou/Project/OpenRE/Tools/gcc-arm-none-eabi-5_4-2016q2/bin/../lib/gcc/arm-none-eabi/5.4.1/../../../../arm-none-eabi/lib/armv7e-m/fpu/libg.a(lib_a-memcpy.o)
                              ../src/main.o (memcpy)
/home/kedou/Project/OpenRE/Tools/gcc-arm-none-eabi-5_4-2016q2/bin/../lib/gcc/arm-none-eabi/5.4.1/../../../../arm-none-eabi/lib/armv7e-m/fpu/libg.a(lib_a-printf.o)
                              ../src/main.o (printf)
/home/kedou/Project/OpenRE/Tools/gcc-arm-none-eabi-5_4-2016q2/bin/../lib/gcc/arm-none-eabi/5.4.1/../../../../arm-none-eabi/lib/armv7e-m/fpu/libg.a(lib_a-puts.o)
                              ../src/main.o (puts)
/home/kedou/Project/OpenRE/Tools/gcc-arm-none-eabi-5_4-2016q2/bin/../lib/gcc/arm-none-eabi/5.4.1/../../../../arm-none-eabi/lib/armv7e-m/fpu/libg.a(lib_a-reent.o)
                              ../../../../1_Processor/STM32F4/BSPLIB/usart.o (errno)
/home/kedou/Project/OpenRE/Tools/gcc-arm-none-eabi-5_4-2016q2/bin/../lib/gcc/arm-none-eabi/5.4.1/../../../../arm-none-eabi/lib/armv7e-m/fpu/libg.a(lib_a-strlen.o)
                              /home/kedou/Project/OpenRE/Tools/gcc-arm-none-eabi-5_4-2016q2/bin/../lib/gcc/arm-none-eabi/5.4.1/../../../../arm-none-eabi/lib/armv7e-m/fpu/libg.a(lib_a-puts.o) (strlen)
/home/kedou/Project/OpenRE/Tools/gcc-arm-none-eabi-5_4-2016q2/bin/../lib/gcc/arm-none-eabi/5.4.1/../../../../arm-none-eabi/lib/armv7e-m/fpu/libg.a(lib_a-vfprintf.o)
                              /home/kedou/Project/OpenRE/Tools/gcc-arm-none-eabi-5_4-2016q2/bin/../lib/gcc/arm-none-eabi/5.4.1/../../../../arm-none-eabi/lib/armv7e-m/fpu/libg.a(lib_a-printf.o) (_vfprintf_r)
/home/kedou/Project/OpenRE/Tools/gcc-arm-none-eabi-5_4-2016q2/bin/../lib/gcc/arm-none-eabi/5.4.1/../../../../arm-none-eabi/lib/armv7e-m/fpu/libg.a(lib_a-wsetup.o)
                              /home/kedou/Project/OpenRE/Tools/gcc-arm-none-eabi-5_4-2016q2/bin/../lib/gcc/arm-none-eabi/5.4.1/../../../../arm-none-eabi/lib/armv7e-m/fpu/libg.a(lib_a-vfprintf.o) (__swsetup_r)
/home/kedou/Project/OpenRE/Tools/gcc-arm-none-eabi-5_4-2016q2/bin/../lib/gcc/arm-none-eabi/5.4.1/../../../../arm-none-eabi/lib/armv7e-m/fpu/libg.a(lib_a-dtoa.o)
                              /home/kedou/Project/OpenRE/Tools/gcc-arm-none-eabi-5_4-2016q2/bin/../lib/gcc/arm-none-eabi/5.4.1/../../../../arm-none-eabi/lib/armv7e-m/fpu/libg.a(lib_a-vfprintf.o) (_dtoa_r)
/home/kedou/Project/OpenRE/Tools/gcc-arm-none-eabi-5_4-2016q2/bin/../lib/gcc/arm-none-eabi/5.4.1/../../../../arm-none-eabi/lib/armv7e-m/fpu/libg.a(lib_a-fflush.o)
                              /home/kedou/Project/OpenRE/Tools/gcc-arm-none-eabi-5_4-2016q2/bin/../lib/gcc/arm-none-eabi/5.4.1/../../../../arm-none-eabi/lib/armv7e-m/fpu/libg.a(lib_a-vfprintf.o) (_fflush_r)
/home/kedou/Project/OpenRE/Tools/gcc-arm-none-eabi-5_4-2016q2/bin/../lib/gcc/arm-none-eabi/5.4.1/../../../../arm-none-eabi/lib/armv7e-m/fpu/libg.a(lib_a-findfp.o)
                              /home/kedou/Project/OpenRE/Tools/gcc-arm-none-eabi-5_4-2016q2/bin/../lib/gcc/arm-none-eabi/5.4.1/../../../../arm-none-eabi/lib/armv7e-m/fpu/libg.a(lib_a-puts.o) (__sinit)
/home/kedou/Project/OpenRE/Tools/gcc-arm-none-eabi-5_4-2016q2/bin/../lib/gcc/arm-none-eabi/5.4.1/../../../../arm-none-eabi/lib/armv7e-m/fpu/libg.a(lib_a-freer.o)
                              /home/kedou/Project/OpenRE/Tools/gcc-arm-none-eabi-5_4-2016q2/bin/../lib/gcc/arm-none-eabi/5.4.1/../../../../arm-none-eabi/lib/armv7e-m/fpu/libg.a(lib_a-reent.o) (_free_r)
/home/kedou/Project/OpenRE/Tools/gcc-arm-none-eabi-5_4-2016q2/bin/../lib/gcc/arm-none-eabi/5.4.1/../../../../arm-none-eabi/lib/armv7e-m/fpu/libg.a(lib_a-fvwrite.o)
                              /home/kedou/Project/OpenRE/Tools/gcc-arm-none-eabi-5_4-2016q2/bin/../lib/gcc/arm-none-eabi/5.4.1/../../../../arm-none-eabi/lib/armv7e-m/fpu/libg.a(lib_a-puts.o) (__sfvwrite_r)
/home/kedou/Project/OpenRE/Tools/gcc-arm-none-eabi-5_4-2016q2/bin/../lib/gcc/arm-none-eabi/5.4.1/../../../../arm-none-eabi/lib/armv7e-m/fpu/libg.a(lib_a-fwalk.o)
                              /home/kedou/Project/OpenRE/Tools/gcc-arm-none-eabi-5_4-2016q2/bin/../lib/gcc/arm-none-eabi/5.4.1/../../../../arm-none-eabi/lib/armv7e-m/fpu/libg.a(lib_a-findfp.o) (_fwalk)
/home/kedou/Project/OpenRE/Tools/gcc-arm-none-eabi-5_4-2016q2/bin/../lib/gcc/arm-none-eabi/5.4.1/../../../../arm-none-eabi/lib/armv7e-m/fpu/libg.a(lib_a-impure.o)
                              /home/kedou/Project/OpenRE/Tools/gcc-arm-none-eabi-5_4-2016q2/bin/../lib/gcc/arm-none-eabi/5.4.1/../../../../arm-none-eabi/lib/armv7e-m/fpu/libg.a(lib_a-fflush.o) (_global_impure_ptr)
/home/kedou/Project/OpenRE/Tools/gcc-arm-none-eabi-5_4-2016q2/bin/../lib/gcc/arm-none-eabi/5.4.1/../../../../arm-none-eabi/lib/armv7e-m/fpu/libg.a(lib_a-locale.o)
                              /home/kedou/Project/OpenRE/Tools/gcc-arm-none-eabi-5_4-2016q2/bin/../lib/gcc/arm-none-eabi/5.4.1/../../../../arm-none-eabi/lib/armv7e-m/fpu/libg.a(lib_a-vfprintf.o) (_localeconv_r)
/home/kedou/Project/OpenRE/Tools/gcc-arm-none-eabi-5_4-2016q2/bin/../lib/gcc/arm-none-eabi/5.4.1/../../../../arm-none-eabi/lib/armv7e-m/fpu/libg.a(lib_a-makebuf.o)
                              /home/kedou/Project/OpenRE/Tools/gcc-arm-none-eabi-5_4-2016q2/bin/../lib/gcc/arm-none-eabi/5.4.1/../../../../arm-none-eabi/lib/armv7e-m/fpu/libg.a(lib_a-wsetup.o) (__smakebuf_r)
/home/kedou/Project/OpenRE/Tools/gcc-arm-none-eabi-5_4-2016q2/bin/../lib/gcc/arm-none-eabi/5.4.1/../../../../arm-none-eabi/lib/armv7e-m/fpu/libg.a(lib_a-mallocr.o)
                              /home/kedou/Project/OpenRE/Tools/gcc-arm-none-eabi-5_4-2016q2/bin/../lib/gcc/arm-none-eabi/5.4.1/../../../../arm-none-eabi/lib/armv7e-m/fpu/libg.a(lib_a-findfp.o) (_malloc_r)
/home/kedou/Project/OpenRE/Tools/gcc-arm-none-eabi-5_4-2016q2/bin/../lib/gcc/arm-none-eabi/5.4.1/../../../../arm-none-eabi/lib/armv7e-m/fpu/libg.a(lib_a-memchr.o)
                              /home/kedou/Project/OpenRE/Tools/gcc-arm-none-eabi-5_4-2016q2/bin/../lib/gcc/arm-none-eabi/5.4.1/../../../../arm-none-eabi/lib/armv7e-m/fpu/libg.a(lib_a-vfprintf.o) (memchr)
/home/kedou/Project/OpenRE/Tools/gcc-arm-none-eabi-5_4-2016q2/bin/../lib/gcc/arm-none-eabi/5.4.1/../../../../arm-none-eabi/lib/armv7e-m/fpu/libg.a(lib_a-memmove.o)
                              /home/kedou/Project/OpenRE/Tools/gcc-arm-none-eabi-5_4-2016q2/bin/../lib/gcc/arm-none-eabi/5.4.1/../../../../arm-none-eabi/lib/armv7e-m/fpu/libg.a(lib_a-fvwrite.o) (memmove)
/home/kedou/Project/OpenRE/Tools/gcc-arm-none-eabi-5_4-2016q2/bin/../lib/gcc/arm-none-eabi/5.4.1/../../../../arm-none-eabi/lib/armv7e-m/fpu/libg.a(lib_a-memset.o)
                              /home/kedou/Project/OpenRE/Tools/gcc-arm-none-eabi-5_4-2016q2/bin/../lib/gcc/arm-none-eabi/5.4.1/../../../../arm-none-eabi/lib/armv7e-m/fpu/libg.a(lib_a-findfp.o) (memset)
/home/kedou/Project/OpenRE/Tools/gcc-arm-none-eabi-5_4-2016q2/bin/../lib/gcc/arm-none-eabi/5.4.1/../../../../arm-none-eabi/lib/armv7e-m/fpu/libg.a(lib_a-mlock.o)
                              /home/kedou/Project/OpenRE/Tools/gcc-arm-none-eabi-5_4-2016q2/bin/../lib/gcc/arm-none-eabi/5.4.1/../../../../arm-none-eabi/lib/armv7e-m/fpu/libg.a(lib_a-freer.o) (__malloc_lock)
/home/kedou/Project/OpenRE/Tools/gcc-arm-none-eabi-5_4-2016q2/bin/../lib/gcc/arm-none-eabi/5.4.1/../../../../arm-none-eabi/lib/armv7e-m/fpu/libg.a(lib_a-mprec.o)
                              /home/kedou/Project/OpenRE/Tools/gcc-arm-none-eabi-5_4-2016q2/bin/../lib/gcc/arm-none-eabi/5.4.1/../../../../arm-none-eabi/lib/armv7e-m/fpu/libg.a(lib_a-dtoa.o) (_Balloc)
/home/kedou/Project/OpenRE/Tools/gcc-arm-none-eabi-5_4-2016q2/bin/../lib/gcc/arm-none-eabi/5.4.1/../../../../arm-none-eabi/lib/armv7e-m/fpu/libg.a(lib_a-reallocr.o)
                              /home/kedou/Project/OpenRE/Tools/gcc-arm-none-eabi-5_4-2016q2/bin/../lib/gcc/arm-none-eabi/5.4.1/../../../../arm-none-eabi/lib/armv7e-m/fpu/libg.a(lib_a-fvwrite.o) (_realloc_r)
/home/kedou/Project/OpenRE/Tools/gcc-arm-none-eabi-5_4-2016q2/bin/../lib/gcc/arm-none-eabi/5.4.1/../../../../arm-none-eabi/lib/armv7e-m/fpu/libg.a(lib_a-sbrkr.o)
                              /home/kedou/Project/OpenRE/Tools/gcc-arm-none-eabi-5_4-2016q2/bin/../lib/gcc/arm-none-eabi/5.4.1/../../../../arm-none-eabi/lib/armv7e-m/fpu/libg.a(lib_a-freer.o) (_sbrk_r)
/home/kedou/Project/OpenRE/Tools/gcc-arm-none-eabi-5_4-2016q2/bin/../lib/gcc/arm-none-eabi/5.4.1/../../../../arm-none-eabi/lib/armv7e-m/fpu/libg.a(lib_a-stdio.o)
                              /home/kedou/Project/OpenRE/Tools/gcc-arm-none-eabi-5_4-2016q2/bin/../lib/gcc/arm-none-eabi/5.4.1/../../../../arm-none-eabi/lib/armv7e-m/fpu/libg.a(lib_a-findfp.o) (__sread)
/home/kedou/Project/OpenRE/Tools/gcc-arm-none-eabi-5_4-2016q2/bin/../lib/gcc/arm-none-eabi/5.4.1/../../../../arm-none-eabi/lib/armv7e-m/fpu/libg.a(lib_a-strcmp.o)
                              /home/kedou/Project/OpenRE/Tools/gcc-arm-none-eabi-5_4-2016q2/bin/../lib/gcc/arm-none-eabi/5.4.1/../../../../arm-none-eabi/lib/armv7e-m/fpu/libg.a(lib_a-locale.o) (strcmp)
/home/kedou/Project/OpenRE/Tools/gcc-arm-none-eabi-5_4-2016q2/bin/../lib/gcc/arm-none-eabi/5.4.1/../../../../arm-none-eabi/lib/armv7e-m/fpu/libg.a(lib_a-vfiprintf.o)
                              /home/kedou/Project/OpenRE/Tools/gcc-arm-none-eabi-5_4-2016q2/bin/../lib/gcc/arm-none-eabi/5.4.1/../../../../arm-none-eabi/lib/armv7e-m/fpu/libg.a(lib_a-vfprintf.o) (__sprint_r)
/home/kedou/Project/OpenRE/Tools/gcc-arm-none-eabi-5_4-2016q2/bin/../lib/gcc/arm-none-eabi/5.4.1/../../../../arm-none-eabi/lib/armv7e-m/fpu/libg.a(lib_a-writer.o)
                              /home/kedou/Project/OpenRE/Tools/gcc-arm-none-eabi-5_4-2016q2/bin/../lib/gcc/arm-none-eabi/5.4.1/../../../../arm-none-eabi/lib/armv7e-m/fpu/libg.a(lib_a-stdio.o) (_write_r)
/home/kedou/Project/OpenRE/Tools/gcc-arm-none-eabi-5_4-2016q2/bin/../lib/gcc/arm-none-eabi/5.4.1/../../../../arm-none-eabi/lib/armv7e-m/fpu/libg.a(lib_a-callocr.o)
                              /home/kedou/Project/OpenRE/Tools/gcc-arm-none-eabi-5_4-2016q2/bin/../lib/gcc/arm-none-eabi/5.4.1/../../../../arm-none-eabi/lib/armv7e-m/fpu/libg.a(lib_a-mprec.o) (_calloc_r)
/home/kedou/Project/OpenRE/Tools/gcc-arm-none-eabi-5_4-2016q2/bin/../lib/gcc/arm-none-eabi/5.4.1/../../../../arm-none-eabi/lib/armv7e-m/fpu/libg.a(lib_a-closer.o)
                              /home/kedou/Project/OpenRE/Tools/gcc-arm-none-eabi-5_4-2016q2/bin/../lib/gcc/arm-none-eabi/5.4.1/../../../../arm-none-eabi/lib/armv7e-m/fpu/libg.a(lib_a-stdio.o) (_close_r)
/home/kedou/Project/OpenRE/Tools/gcc-arm-none-eabi-5_4-2016q2/bin/../lib/gcc/arm-none-eabi/5.4.1/../../../../arm-none-eabi/lib/armv7e-m/fpu/libg.a(lib_a-fclose.o)
                              /home/kedou/Project/OpenRE/Tools/gcc-arm-none-eabi-5_4-2016q2/bin/../lib/gcc/arm-none-eabi/5.4.1/../../../../arm-none-eabi/lib/armv7e-m/fpu/libg.a(lib_a-findfp.o) (_fclose_r)
/home/kedou/Project/OpenRE/Tools/gcc-arm-none-eabi-5_4-2016q2/bin/../lib/gcc/arm-none-eabi/5.4.1/../../../../arm-none-eabi/lib/armv7e-m/fpu/libg.a(lib_a-fputwc.o)
                              /home/kedou/Project/OpenRE/Tools/gcc-arm-none-eabi-5_4-2016q2/bin/../lib/gcc/arm-none-eabi/5.4.1/../../../../arm-none-eabi/lib/armv7e-m/fpu/libg.a(lib_a-vfiprintf.o) (_fputwc_r)
/home/kedou/Project/OpenRE/Tools/gcc-arm-none-eabi-5_4-2016q2/bin/../lib/gcc/arm-none-eabi/5.4.1/../../../../arm-none-eabi/lib/armv7e-m/fpu/libg.a(lib_a-fstatr.o)
                              /home/kedou/Project/OpenRE/Tools/gcc-arm-none-eabi-5_4-2016q2/bin/../lib/gcc/arm-none-eabi/5.4.1/../../../../arm-none-eabi/lib/armv7e-m/fpu/libg.a(lib_a-makebuf.o) (_fstat_r)
/home/kedou/Project/OpenRE/Tools/gcc-arm-none-eabi-5_4-2016q2/bin/../lib/gcc/arm-none-eabi/5.4.1/../../../../arm-none-eabi/lib/armv7e-m/fpu/libg.a(lib_a-isattyr.o)
                              /home/kedou/Project/OpenRE/Tools/gcc-arm-none-eabi-5_4-2016q2/bin/../lib/gcc/arm-none-eabi/5.4.1/../../../../arm-none-eabi/lib/armv7e-m/fpu/libg.a(lib_a-makebuf.o) (_isatty_r)
/home/kedou/Project/OpenRE/Tools/gcc-arm-none-eabi-5_4-2016q2/bin/../lib/gcc/arm-none-eabi/5.4.1/../../../../arm-none-eabi/lib/armv7e-m/fpu/libg.a(lib_a-lseekr.o)
                              /home/kedou/Project/OpenRE/Tools/gcc-arm-none-eabi-5_4-2016q2/bin/../lib/gcc/arm-none-eabi/5.4.1/../../../../arm-none-eabi/lib/armv7e-m/fpu/libg.a(lib_a-stdio.o) (_lseek_r)
/home/kedou/Project/OpenRE/Tools/gcc-arm-none-eabi-5_4-2016q2/bin/../lib/gcc/arm-none-eabi/5.4.1/../../../../arm-none-eabi/lib/armv7e-m/fpu/libg.a(lib_a-readr.o)
                              /home/kedou/Project/OpenRE/Tools/gcc-arm-none-eabi-5_4-2016q2/bin/../lib/gcc/arm-none-eabi/5.4.1/../../../../arm-none-eabi/lib/armv7e-m/fpu/libg.a(lib_a-stdio.o) (_read_r)
/home/kedou/Project/OpenRE/Tools/gcc-arm-none-eabi-5_4-2016q2/bin/../lib/gcc/arm-none-eabi/5.4.1/../../../../arm-none-eabi/lib/armv7e-m/fpu/libg.a(lib_a-wbuf.o)
                              /home/kedou/Project/OpenRE/Tools/gcc-arm-none-eabi-5_4-2016q2/bin/../lib/gcc/arm-none-eabi/5.4.1/../../../../arm-none-eabi/lib/armv7e-m/fpu/libg.a(lib_a-fputwc.o) (__swbuf_r)
/home/kedou/Project/OpenRE/Tools/gcc-arm-none-eabi-5_4-2016q2/bin/../lib/gcc/arm-none-eabi/5.4.1/../../../../arm-none-eabi/lib/armv7e-m/fpu/libg.a(lib_a-wcrtomb.o)
                              /home/kedou/Project/OpenRE/Tools/gcc-arm-none-eabi-5_4-2016q2/bin/../lib/gcc/arm-none-eabi/5.4.1/../../../../arm-none-eabi/lib/armv7e-m/fpu/libg.a(lib_a-fputwc.o) (_wcrtomb_r)
/home/kedou/Project/OpenRE/Tools/gcc-arm-none-eabi-5_4-2016q2/bin/../lib/gcc/arm-none-eabi/5.4.1/../../../../arm-none-eabi/lib/armv7e-m/fpu/libg.a(lib_a-wctomb_r.o)
                              /home/kedou/Project/OpenRE/Tools/gcc-arm-none-eabi-5_4-2016q2/bin/../lib/gcc/arm-none-eabi/5.4.1/../../../../arm-none-eabi/lib/armv7e-m/fpu/libg.a(lib_a-wcrtomb.o) (__wctomb)
/home/kedou/Project/OpenRE/Tools/gcc-arm-none-eabi-5_4-2016q2/bin/../lib/gcc/arm-none-eabi/5.4.1/armv7e-m/fpu/libgcc.a(_arm_addsubdf3.o)
                              /home/kedou/Project/OpenRE/Tools/gcc-arm-none-eabi-5_4-2016q2/bin/../lib/gcc/arm-none-eabi/5.4.1/../../../../arm-none-eabi/lib/armv7e-m/fpu/libg.a(lib_a-dtoa.o) (__aeabi_dsub)
/home/kedou/Project/OpenRE/Tools/gcc-arm-none-eabi-5_4-2016q2/bin/../lib/gcc/arm-none-eabi/5.4.1/armv7e-m/fpu/libgcc.a(_arm_muldivdf3.o)
                              /home/kedou/Project/OpenRE/Tools/gcc-arm-none-eabi-5_4-2016q2/bin/../lib/gcc/arm-none-eabi/5.4.1/../../../../arm-none-eabi/lib/armv7e-m/fpu/libg.a(lib_a-dtoa.o) (__aeabi_dmul)
/home/kedou/Project/OpenRE/Tools/gcc-arm-none-eabi-5_4-2016q2/bin/../lib/gcc/arm-none-eabi/5.4.1/armv7e-m/fpu/libgcc.a(_arm_cmpdf2.o)
                              /home/kedou/Project/OpenRE/Tools/gcc-arm-none-eabi-5_4-2016q2/bin/../lib/gcc/arm-none-eabi/5.4.1/../../../../arm-none-eabi/lib/armv7e-m/fpu/libg.a(lib_a-vfprintf.o) (__aeabi_dcmpeq)
/home/kedou/Project/OpenRE/Tools/gcc-arm-none-eabi-5_4-2016q2/bin/../lib/gcc/arm-none-eabi/5.4.1/armv7e-m/fpu/libgcc.a(_arm_unorddf2.o)
                              /home/kedou/Project/OpenRE/Tools/gcc-arm-none-eabi-5_4-2016q2/bin/../lib/gcc/arm-none-eabi/5.4.1/../../../../arm-none-eabi/lib/armv7e-m/fpu/libg.a(lib_a-vfprintf.o) (__aeabi_dcmpun)
/home/kedou/Project/OpenRE/Tools/gcc-arm-none-eabi-5_4-2016q2/bin/../lib/gcc/arm-none-eabi/5.4.1/armv7e-m/fpu/libgcc.a(_arm_fixdfsi.o)
                              /home/kedou/Project/OpenRE/Tools/gcc-arm-none-eabi-5_4-2016q2/bin/../lib/gcc/arm-none-eabi/5.4.1/../../../../arm-none-eabi/lib/armv7e-m/fpu/libg.a(lib_a-dtoa.o) (__aeabi_d2iz)
/home/kedou/Project/OpenRE/Tools/gcc-arm-none-eabi-5_4-2016q2/bin/../lib/gcc/arm-none-eabi/5.4.1/armv7e-m/fpu/libgcc.a(_aeabi_uldivmod.o)
                              /home/kedou/Project/OpenRE/Tools/gcc-arm-none-eabi-5_4-2016q2/bin/../lib/gcc/arm-none-eabi/5.4.1/../../../../arm-none-eabi/lib/armv7e-m/fpu/libg.a(lib_a-vfprintf.o) (__aeabi_uldivmod)
/home/kedou/Project/OpenRE/Tools/gcc-arm-none-eabi-5_4-2016q2/bin/../lib/gcc/arm-none-eabi/5.4.1/armv7e-m/fpu/libgcc.a(_udivmoddi4.o)
                              /home/kedou/Project/OpenRE/Tools/gcc-arm-none-eabi-5_4-2016q2/bin/../lib/gcc/arm-none-eabi/5.4.1/armv7e-m/fpu/libgcc.a(_aeabi_uldivmod.o) (__udivmoddi4)
/home/kedou/Project/OpenRE/Tools/gcc-arm-none-eabi-5_4-2016q2/bin/../lib/gcc/arm-none-eabi/5.4.1/armv7e-m/fpu/libgcc.a(_dvmd_tls.o)
                              /home/kedou/Project/OpenRE/Tools/gcc-arm-none-eabi-5_4-2016q2/bin/../lib/gcc/arm-none-eabi/5.4.1/armv7e-m/fpu/libgcc.a(_aeabi_uldivmod.o) (__aeabi_ldiv0)

Allocating common symbols
Common symbol       size              file

errno               0x4               /home/kedou/Project/OpenRE/Tools/gcc-arm-none-eabi-5_4-2016q2/bin/../lib/gcc/arm-none-eabi/5.4.1/../../../../arm-none-eabi/lib/armv7e-m/fpu/libg.a(lib_a-reent.o)

Discarded input sections

 .text          0x00000000       0x14 ../../../../1_Processor/STM32F4/STM32F4-Discovery_FW_V1.1.0/Libraries/CMSIS/ST/STM32F4xx/Source/Templates/gcc_ride7/startup_stm32f4xx.o
 .data          0x00000000        0x0 ../../../../1_Processor/STM32F4/STM32F4-Discovery_FW_V1.1.0/Libraries/CMSIS/ST/STM32F4xx/Source/Templates/gcc_ride7/startup_stm32f4xx.o
 .bss           0x00000000        0x0 ../../../../1_Processor/STM32F4/STM32F4-Discovery_FW_V1.1.0/Libraries/CMSIS/ST/STM32F4xx/Source/Templates/gcc_ride7/startup_stm32f4xx.o
 .bss           0x00000000        0x0 ../../../../1_Processor/STM32F4/STM32F4-Discovery_FW_V1.1.0/Libraries/CMSIS/ST/STM32F4xx/Source/Templates/system_stm32f4xx.o
 .data          0x00000000        0x0 ../../../../1_Processor/STM32F4/STM32F4-Discovery_FW_V1.1.0/Libraries/STM32F4xx_StdPeriph_Driver/src/misc.o
 .bss           0x00000000        0x0 ../../../../1_Processor/STM32F4/STM32F4-Discovery_FW_V1.1.0/Libraries/STM32F4xx_StdPeriph_Driver/src/misc.o
 .data          0x00000000        0x0 ../../../../1_Processor/STM32F4/STM32F4-Discovery_FW_V1.1.0/Libraries/STM32F4xx_StdPeriph_Driver/src/stm32f4xx_adc.o
 .bss           0x00000000        0x0 ../../../../1_Processor/STM32F4/STM32F4-Discovery_FW_V1.1.0/Libraries/STM32F4xx_StdPeriph_Driver/src/stm32f4xx_adc.o
 .text          0x00000000      0x714 ../../../../1_Processor/STM32F4/STM32F4-Discovery_FW_V1.1.0/Libraries/STM32F4xx_StdPeriph_Driver/src/stm32f4xx_can.o
 .data          0x00000000        0x0 ../../../../1_Processor/STM32F4/STM32F4-Discovery_FW_V1.1.0/Libraries/STM32F4xx_StdPeriph_Driver/src/stm32f4xx_can.o
 .bss           0x00000000        0x0 ../../../../1_Processor/STM32F4/STM32F4-Discovery_FW_V1.1.0/Libraries/STM32F4xx_StdPeriph_Driver/src/stm32f4xx_can.o
 .debug_info    0x00000000      0xd3a ../../../../1_Processor/STM32F4/STM32F4-Discovery_FW_V1.1.0/Libraries/STM32F4xx_StdPeriph_Driver/src/stm32f4xx_can.o
 .debug_abbrev  0x00000000      0x29f ../../../../1_Processor/STM32F4/STM32F4-Discovery_FW_V1.1.0/Libraries/STM32F4xx_StdPeriph_Driver/src/stm32f4xx_can.o
 .debug_loc     0x00000000      0x8ca ../../../../1_Processor/STM32F4/STM32F4-Discovery_FW_V1.1.0/Libraries/STM32F4xx_StdPeriph_Driver/src/stm32f4xx_can.o
 .debug_aranges
                0x00000000       0x20 ../../../../1_Processor/STM32F4/STM32F4-Discovery_FW_V1.1.0/Libraries/STM32F4xx_StdPeriph_Driver/src/stm32f4xx_can.o
 .debug_ranges  0x00000000       0x38 ../../../../1_Processor/STM32F4/STM32F4-Discovery_FW_V1.1.0/Libraries/STM32F4xx_StdPeriph_Driver/src/stm32f4xx_can.o
 .debug_line    0x00000000      0x4d6 ../../../../1_Processor/STM32F4/STM32F4-Discovery_FW_V1.1.0/Libraries/STM32F4xx_StdPeriph_Driver/src/stm32f4xx_can.o
 .debug_str     0x00000000      0x81f ../../../../1_Processor/STM32F4/STM32F4-Discovery_FW_V1.1.0/Libraries/STM32F4xx_StdPeriph_Driver/src/stm32f4xx_can.o
 .comment       0x00000000       0x6f ../../../../1_Processor/STM32F4/STM32F4-Discovery_FW_V1.1.0/Libraries/STM32F4xx_StdPeriph_Driver/src/stm32f4xx_can.o
 .debug_frame   0x00000000      0x1c0 ../../../../1_Processor/STM32F4/STM32F4-Discovery_FW_V1.1.0/Libraries/STM32F4xx_StdPeriph_Driver/src/stm32f4xx_can.o
 .ARM.attributes
                0x00000000       0x39 ../../../../1_Processor/STM32F4/STM32F4-Discovery_FW_V1.1.0/Libraries/STM32F4xx_StdPeriph_Driver/src/stm32f4xx_can.o
 .text          0x00000000       0x58 ../../../../1_Processor/STM32F4/STM32F4-Discovery_FW_V1.1.0/Libraries/STM32F4xx_StdPeriph_Driver/src/stm32f4xx_crc.o
 .data          0x00000000        0x0 ../../../../1_Processor/STM32F4/STM32F4-Discovery_FW_V1.1.0/Libraries/STM32F4xx_StdPeriph_Driver/src/stm32f4xx_crc.o
 .bss           0x00000000        0x0 ../../../../1_Processor/STM32F4/STM32F4-Discovery_FW_V1.1.0/Libraries/STM32F4xx_StdPeriph_Driver/src/stm32f4xx_crc.o
 .debug_info    0x00000000      0x233 ../../../../1_Processor/STM32F4/STM32F4-Discovery_FW_V1.1.0/Libraries/STM32F4xx_StdPeriph_Driver/src/stm32f4xx_crc.o
 .debug_abbrev  0x00000000      0x125 ../../../../1_Processor/STM32F4/STM32F4-Discovery_FW_V1.1.0/Libraries/STM32F4xx_StdPeriph_Driver/src/stm32f4xx_crc.o
 .debug_loc     0x00000000       0x75 ../../../../1_Processor/STM32F4/STM32F4-Discovery_FW_V1.1.0/Libraries/STM32F4xx_StdPeriph_Driver/src/stm32f4xx_crc.o
 .debug_aranges
                0x00000000       0x20 ../../../../1_Processor/STM32F4/STM32F4-Discovery_FW_V1.1.0/Libraries/STM32F4xx_StdPeriph_Driver/src/stm32f4xx_crc.o
 .debug_line    0x00000000      0x26b ../../../../1_Processor/STM32F4/STM32F4-Discovery_FW_V1.1.0/Libraries/STM32F4xx_StdPeriph_Driver/src/stm32f4xx_crc.o
 .debug_str     0x00000000      0x315 ../../../../1_Processor/STM32F4/STM32F4-Discovery_FW_V1.1.0/Libraries/STM32F4xx_StdPeriph_Driver/src/stm32f4xx_crc.o
 .comment       0x00000000       0x6f ../../../../1_Processor/STM32F4/STM32F4-Discovery_FW_V1.1.0/Libraries/STM32F4xx_StdPeriph_Driver/src/stm32f4xx_crc.o
 .debug_frame   0x00000000       0x70 ../../../../1_Processor/STM32F4/STM32F4-Discovery_FW_V1.1.0/Libraries/STM32F4xx_StdPeriph_Driver/src/stm32f4xx_crc.o
 .ARM.attributes
                0x00000000       0x39 ../../../../1_Processor/STM32F4/STM32F4-Discovery_FW_V1.1.0/Libraries/STM32F4xx_StdPeriph_Driver/src/stm32f4xx_crc.o
 .text          0x00000000      0x4d6 ../../../../1_Processor/STM32F4/STM32F4-Discovery_FW_V1.1.0/Libraries/STM32F4xx_StdPeriph_Driver/src/stm32f4xx_cryp_aes.o
 .data          0x00000000        0x0 ../../../../1_Processor/STM32F4/STM32F4-Discovery_FW_V1.1.0/Libraries/STM32F4xx_StdPeriph_Driver/src/stm32f4xx_cryp_aes.o
 .bss           0x00000000        0x0 ../../../../1_Processor/STM32F4/STM32F4-Discovery_FW_V1.1.0/Libraries/STM32F4xx_StdPeriph_Driver/src/stm32f4xx_cryp_aes.o
 .debug_info    0x00000000     0x1471 ../../../../1_Processor/STM32F4/STM32F4-Discovery_FW_V1.1.0/Libraries/STM32F4xx_StdPeriph_Driver/src/stm32f4xx_cryp_aes.o
 .debug_abbrev  0x00000000      0x237 ../../../../1_Processor/STM32F4/STM32F4-Discovery_FW_V1.1.0/Libraries/STM32F4xx_StdPeriph_Driver/src/stm32f4xx_cryp_aes.o
 .debug_loc     0x00000000      0xf4d ../../../../1_Processor/STM32F4/STM32F4-Discovery_FW_V1.1.0/Libraries/STM32F4xx_StdPeriph_Driver/src/stm32f4xx_cryp_aes.o
 .debug_aranges
                0x00000000       0x20 ../../../../1_Processor/STM32F4/STM32F4-Discovery_FW_V1.1.0/Libraries/STM32F4xx_StdPeriph_Driver/src/stm32f4xx_cryp_aes.o
 .debug_line    0x00000000      0x6ef ../../../../1_Processor/STM32F4/STM32F4-Discovery_FW_V1.1.0/Libraries/STM32F4xx_StdPeriph_Driver/src/stm32f4xx_cryp_aes.o
 .debug_str     0x00000000      0x52b ../../../../1_Processor/STM32F4/STM32F4-Discovery_FW_V1.1.0/Libraries/STM32F4xx_StdPeriph_Driver/src/stm32f4xx_cryp_aes.o
 .comment       0x00000000       0x6f ../../../../1_Processor/STM32F4/STM32F4-Discovery_FW_V1.1.0/Libraries/STM32F4xx_StdPeriph_Driver/src/stm32f4xx_cryp_aes.o
 .debug_frame   0x00000000       0x90 ../../../../1_Processor/STM32F4/STM32F4-Discovery_FW_V1.1.0/Libraries/STM32F4xx_StdPeriph_Driver/src/stm32f4xx_cryp_aes.o
 .ARM.attributes
                0x00000000       0x39 ../../../../1_Processor/STM32F4/STM32F4-Discovery_FW_V1.1.0/Libraries/STM32F4xx_StdPeriph_Driver/src/stm32f4xx_cryp_aes.o
 .text          0x00000000      0x258 ../../../../1_Processor/STM32F4/STM32F4-Discovery_FW_V1.1.0/Libraries/STM32F4xx_StdPeriph_Driver/src/stm32f4xx_cryp.o
 .data          0x00000000        0x0 ../../../../1_Processor/STM32F4/STM32F4-Discovery_FW_V1.1.0/Libraries/STM32F4xx_StdPeriph_Driver/src/stm32f4xx_cryp.o
 .bss           0x00000000        0x0 ../../../../1_Processor/STM32F4/STM32F4-Discovery_FW_V1.1.0/Libraries/STM32F4xx_StdPeriph_Driver/src/stm32f4xx_cryp.o
 .debug_info    0x00000000      0x811 ../../../../1_Processor/STM32F4/STM32F4-Discovery_FW_V1.1.0/Libraries/STM32F4xx_StdPeriph_Driver/src/stm32f4xx_cryp.o
 .debug_abbrev  0x00000000      0x1ef ../../../../1_Processor/STM32F4/STM32F4-Discovery_FW_V1.1.0/Libraries/STM32F4xx_StdPeriph_Driver/src/stm32f4xx_cryp.o
 .debug_loc     0x00000000      0x26e ../../../../1_Processor/STM32F4/STM32F4-Discovery_FW_V1.1.0/Libraries/STM32F4xx_StdPeriph_Driver/src/stm32f4xx_cryp.o
 .debug_aranges
                0x00000000       0x20 ../../../../1_Processor/STM32F4/STM32F4-Discovery_FW_V1.1.0/Libraries/STM32F4xx_StdPeriph_Driver/src/stm32f4xx_cryp.o
 .debug_line    0x00000000      0x3a9 ../../../../1_Processor/STM32F4/STM32F4-Discovery_FW_V1.1.0/Libraries/STM32F4xx_StdPeriph_Driver/src/stm32f4xx_cryp.o
 .debug_str     0x00000000      0x69e ../../../../1_Processor/STM32F4/STM32F4-Discovery_FW_V1.1.0/Libraries/STM32F4xx_StdPeriph_Driver/src/stm32f4xx_cryp.o
 .comment       0x00000000       0x6f ../../../../1_Processor/STM32F4/STM32F4-Discovery_FW_V1.1.0/Libraries/STM32F4xx_StdPeriph_Driver/src/stm32f4xx_cryp.o
 .debug_frame   0x00000000      0x144 ../../../../1_Processor/STM32F4/STM32F4-Discovery_FW_V1.1.0/Libraries/STM32F4xx_StdPeriph_Driver/src/stm32f4xx_cryp.o
 .ARM.attributes
                0x00000000       0x39 ../../../../1_Processor/STM32F4/STM32F4-Discovery_FW_V1.1.0/Libraries/STM32F4xx_StdPeriph_Driver/src/stm32f4xx_cryp.o
 .text          0x00000000      0x196 ../../../../1_Processor/STM32F4/STM32F4-Discovery_FW_V1.1.0/Libraries/STM32F4xx_StdPeriph_Driver/src/stm32f4xx_cryp_des.o
 .data          0x00000000        0x0 ../../../../1_Processor/STM32F4/STM32F4-Discovery_FW_V1.1.0/Libraries/STM32F4xx_StdPeriph_Driver/src/stm32f4xx_cryp_des.o
 .bss           0x00000000        0x0 ../../../../1_Processor/STM32F4/STM32F4-Discovery_FW_V1.1.0/Libraries/STM32F4xx_StdPeriph_Driver/src/stm32f4xx_cryp_des.o
 .debug_info    0x00000000      0x76b ../../../../1_Processor/STM32F4/STM32F4-Discovery_FW_V1.1.0/Libraries/STM32F4xx_StdPeriph_Driver/src/stm32f4xx_cryp_des.o
 .debug_abbrev  0x00000000      0x1b0 ../../../../1_Processor/STM32F4/STM32F4-Discovery_FW_V1.1.0/Libraries/STM32F4xx_StdPeriph_Driver/src/stm32f4xx_cryp_des.o
 .debug_loc     0x00000000      0x4b5 ../../../../1_Processor/STM32F4/STM32F4-Discovery_FW_V1.1.0/Libraries/STM32F4xx_StdPeriph_Driver/src/stm32f4xx_cryp_des.o
 .debug_aranges
                0x00000000       0x20 ../../../../1_Processor/STM32F4/STM32F4-Discovery_FW_V1.1.0/Libraries/STM32F4xx_StdPeriph_Driver/src/stm32f4xx_cryp_des.o
 .debug_line    0x00000000      0x3e1 ../../../../1_Processor/STM32F4/STM32F4-Discovery_FW_V1.1.0/Libraries/STM32F4xx_StdPeriph_Driver/src/stm32f4xx_cryp_des.o
 .debug_str     0x00000000      0x516 ../../../../1_Processor/STM32F4/STM32F4-Discovery_FW_V1.1.0/Libraries/STM32F4xx_StdPeriph_Driver/src/stm32f4xx_cryp_des.o
 .comment       0x00000000       0x6f ../../../../1_Processor/STM32F4/STM32F4-Discovery_FW_V1.1.0/Libraries/STM32F4xx_StdPeriph_Driver/src/stm32f4xx_cryp_des.o
 .debug_frame   0x00000000       0x60 ../../../../1_Processor/STM32F4/STM32F4-Discovery_FW_V1.1.0/Libraries/STM32F4xx_StdPeriph_Driver/src/stm32f4xx_cryp_des.o
 .ARM.attributes
                0x00000000       0x39 ../../../../1_Processor/STM32F4/STM32F4-Discovery_FW_V1.1.0/Libraries/STM32F4xx_StdPeriph_Driver/src/stm32f4xx_cryp_des.o
 .text          0x00000000      0x1c2 ../../../../1_Processor/STM32F4/STM32F4-Discovery_FW_V1.1.0/Libraries/STM32F4xx_StdPeriph_Driver/src/stm32f4xx_cryp_tdes.o
 .data          0x00000000        0x0 ../../../../1_Processor/STM32F4/STM32F4-Discovery_FW_V1.1.0/Libraries/STM32F4xx_StdPeriph_Driver/src/stm32f4xx_cryp_tdes.o
 .bss           0x00000000        0x0 ../../../../1_Processor/STM32F4/STM32F4-Discovery_FW_V1.1.0/Libraries/STM32F4xx_StdPeriph_Driver/src/stm32f4xx_cryp_tdes.o
 .debug_info    0x00000000      0x8cb ../../../../1_Processor/STM32F4/STM32F4-Discovery_FW_V1.1.0/Libraries/STM32F4xx_StdPeriph_Driver/src/stm32f4xx_cryp_tdes.o
 .debug_abbrev  0x00000000      0x1b0 ../../../../1_Processor/STM32F4/STM32F4-Discovery_FW_V1.1.0/Libraries/STM32F4xx_StdPeriph_Driver/src/stm32f4xx_cryp_tdes.o
 .debug_loc     0x00000000      0x5bd ../../../../1_Processor/STM32F4/STM32F4-Discovery_FW_V1.1.0/Libraries/STM32F4xx_StdPeriph_Driver/src/stm32f4xx_cryp_tdes.o
 .debug_aranges
                0x00000000       0x20 ../../../../1_Processor/STM32F4/STM32F4-Discovery_FW_V1.1.0/Libraries/STM32F4xx_StdPeriph_Driver/src/stm32f4xx_cryp_tdes.o
 .debug_line    0x00000000      0x440 ../../../../1_Processor/STM32F4/STM32F4-Discovery_FW_V1.1.0/Libraries/STM32F4xx_StdPeriph_Driver/src/stm32f4xx_cryp_tdes.o
 .debug_str     0x00000000      0x51c ../../../../1_Processor/STM32F4/STM32F4-Discovery_FW_V1.1.0/Libraries/STM32F4xx_StdPeriph_Driver/src/stm32f4xx_cryp_tdes.o
 .comment       0x00000000       0x6f ../../../../1_Processor/STM32F4/STM32F4-Discovery_FW_V1.1.0/Libraries/STM32F4xx_StdPeriph_Driver/src/stm32f4xx_cryp_tdes.o
 .debug_frame   0x00000000       0x60 ../../../../1_Processor/STM32F4/STM32F4-Discovery_FW_V1.1.0/Libraries/STM32F4xx_StdPeriph_Driver/src/stm32f4xx_cryp_tdes.o
 .ARM.attributes
                0x00000000       0x39 ../../../../1_Processor/STM32F4/STM32F4-Discovery_FW_V1.1.0/Libraries/STM32F4xx_StdPeriph_Driver/src/stm32f4xx_cryp_tdes.o
 .data          0x00000000        0x0 ../../../../1_Processor/STM32F4/STM32F4-Discovery_FW_V1.1.0/Libraries/STM32F4xx_StdPeriph_Driver/src/stm32f4xx_dac.o
 .bss           0x00000000        0x0 ../../../../1_Processor/STM32F4/STM32F4-Discovery_FW_V1.1.0/Libraries/STM32F4xx_StdPeriph_Driver/src/stm32f4xx_dac.o
 .text          0x00000000       0x64 ../../../../1_Processor/STM32F4/STM32F4-Discovery_FW_V1.1.0/Libraries/STM32F4xx_StdPeriph_Driver/src/stm32f4xx_dbgmcu.o
 .data          0x00000000        0x0 ../../../../1_Processor/STM32F4/STM32F4-Discovery_FW_V1.1.0/Libraries/STM32F4xx_StdPeriph_Driver/src/stm32f4xx_dbgmcu.o
 .bss           0x00000000        0x0 ../../../../1_Processor/STM32F4/STM32F4-Discovery_FW_V1.1.0/Libraries/STM32F4xx_StdPeriph_Driver/src/stm32f4xx_dbgmcu.o
 .debug_info    0x00000000      0x202 ../../../../1_Processor/STM32F4/STM32F4-Discovery_FW_V1.1.0/Libraries/STM32F4xx_StdPeriph_Driver/src/stm32f4xx_dbgmcu.o
 .debug_abbrev  0x00000000       0xf1 ../../../../1_Processor/STM32F4/STM32F4-Discovery_FW_V1.1.0/Libraries/STM32F4xx_StdPeriph_Driver/src/stm32f4xx_dbgmcu.o
 .debug_loc     0x00000000       0xae ../../../../1_Processor/STM32F4/STM32F4-Discovery_FW_V1.1.0/Libraries/STM32F4xx_StdPeriph_Driver/src/stm32f4xx_dbgmcu.o
 .debug_aranges
                0x00000000       0x20 ../../../../1_Processor/STM32F4/STM32F4-Discovery_FW_V1.1.0/Libraries/STM32F4xx_StdPeriph_Driver/src/stm32f4xx_dbgmcu.o
 .debug_line    0x00000000      0x268 ../../../../1_Processor/STM32F4/STM32F4-Discovery_FW_V1.1.0/Libraries/STM32F4xx_StdPeriph_Driver/src/stm32f4xx_dbgmcu.o
 .debug_str     0x00000000      0x30a ../../../../1_Processor/STM32F4/STM32F4-Discovery_FW_V1.1.0/Libraries/STM32F4xx_StdPeriph_Driver/src/stm32f4xx_dbgmcu.o
 .comment       0x00000000       0x6f ../../../../1_Processor/STM32F4/STM32F4-Discovery_FW_V1.1.0/Libraries/STM32F4xx_StdPeriph_Driver/src/stm32f4xx_dbgmcu.o
 .debug_frame   0x00000000       0x60 ../../../../1_Processor/STM32F4/STM32F4-Discovery_FW_V1.1.0/Libraries/STM32F4xx_StdPeriph_Driver/src/stm32f4xx_dbgmcu.o
 .ARM.attributes
                0x00000000       0x39 ../../../../1_Processor/STM32F4/STM32F4-Discovery_FW_V1.1.0/Libraries/STM32F4xx_StdPeriph_Driver/src/stm32f4xx_dbgmcu.o
 .text          0x00000000      0x16c ../../../../1_Processor/STM32F4/STM32F4-Discovery_FW_V1.1.0/Libraries/STM32F4xx_StdPeriph_Driver/src/stm32f4xx_dcmi.o
 .data          0x00000000        0x0 ../../../../1_Processor/STM32F4/STM32F4-Discovery_FW_V1.1.0/Libraries/STM32F4xx_StdPeriph_Driver/src/stm32f4xx_dcmi.o
 .bss           0x00000000        0x0 ../../../../1_Processor/STM32F4/STM32F4-Discovery_FW_V1.1.0/Libraries/STM32F4xx_StdPeriph_Driver/src/stm32f4xx_dcmi.o
 .debug_info    0x00000000      0x5b4 ../../../../1_Processor/STM32F4/STM32F4-Discovery_FW_V1.1.0/Libraries/STM32F4xx_StdPeriph_Driver/src/stm32f4xx_dcmi.o
 .debug_abbrev  0x00000000      0x1fe ../../../../1_Processor/STM32F4/STM32F4-Discovery_FW_V1.1.0/Libraries/STM32F4xx_StdPeriph_Driver/src/stm32f4xx_dcmi.o
 .debug_loc     0x00000000      0x1bb ../../../../1_Processor/STM32F4/STM32F4-Discovery_FW_V1.1.0/Libraries/STM32F4xx_StdPeriph_Driver/src/stm32f4xx_dcmi.o
 .debug_aranges
                0x00000000       0x20 ../../../../1_Processor/STM32F4/STM32F4-Discovery_FW_V1.1.0/Libraries/STM32F4xx_StdPeriph_Driver/src/stm32f4xx_dcmi.o
 .debug_line    0x00000000      0x34a ../../../../1_Processor/STM32F4/STM32F4-Discovery_FW_V1.1.0/Libraries/STM32F4xx_StdPeriph_Driver/src/stm32f4xx_dcmi.o
 .debug_str     0x00000000      0x594 ../../../../1_Processor/STM32F4/STM32F4-Discovery_FW_V1.1.0/Libraries/STM32F4xx_StdPeriph_Driver/src/stm32f4xx_dcmi.o
 .comment       0x00000000       0x6f ../../../../1_Processor/STM32F4/STM32F4-Discovery_FW_V1.1.0/Libraries/STM32F4xx_StdPeriph_Driver/src/stm32f4xx_dcmi.o
 .debug_frame   0x00000000      0x108 ../../../../1_Processor/STM32F4/STM32F4-Discovery_FW_V1.1.0/Libraries/STM32F4xx_StdPeriph_Driver/src/stm32f4xx_dcmi.o
 .ARM.attributes
                0x00000000       0x39 ../../../../1_Processor/STM32F4/STM32F4-Discovery_FW_V1.1.0/Libraries/STM32F4xx_StdPeriph_Driver/src/stm32f4xx_dcmi.o
 .data          0x00000000        0x0 ../../../../1_Processor/STM32F4/STM32F4-Discovery_FW_V1.1.0/Libraries/STM32F4xx_StdPeriph_Driver/src/stm32f4xx_dma.o
 .bss           0x00000000        0x0 ../../../../1_Processor/STM32F4/STM32F4-Discovery_FW_V1.1.0/Libraries/STM32F4xx_StdPeriph_Driver/src/stm32f4xx_dma.o
 .data          0x00000000        0x0 ../../../../1_Processor/STM32F4/STM32F4-Discovery_FW_V1.1.0/Libraries/STM32F4xx_StdPeriph_Driver/src/stm32f4xx_exti.o
 .bss           0x00000000        0x0 ../../../../1_Processor/STM32F4/STM32F4-Discovery_FW_V1.1.0/Libraries/STM32F4xx_StdPeriph_Driver/src/stm32f4xx_exti.o
 .text          0x00000000      0x3e8 ../../../../1_Processor/STM32F4/STM32F4-Discovery_FW_V1.1.0/Libraries/STM32F4xx_StdPeriph_Driver/src/stm32f4xx_flash.o
 .data          0x00000000        0x0 ../../../../1_Processor/STM32F4/STM32F4-Discovery_FW_V1.1.0/Libraries/STM32F4xx_StdPeriph_Driver/src/stm32f4xx_flash.o
 .bss           0x00000000        0x0 ../../../../1_Processor/STM32F4/STM32F4-Discovery_FW_V1.1.0/Libraries/STM32F4xx_StdPeriph_Driver/src/stm32f4xx_flash.o
 .debug_info    0x00000000      0x891 ../../../../1_Processor/STM32F4/STM32F4-Discovery_FW_V1.1.0/Libraries/STM32F4xx_StdPeriph_Driver/src/stm32f4xx_flash.o
 .debug_abbrev  0x00000000      0x256 ../../../../1_Processor/STM32F4/STM32F4-Discovery_FW_V1.1.0/Libraries/STM32F4xx_StdPeriph_Driver/src/stm32f4xx_flash.o
 .debug_loc     0x00000000      0x6a8 ../../../../1_Processor/STM32F4/STM32F4-Discovery_FW_V1.1.0/Libraries/STM32F4xx_StdPeriph_Driver/src/stm32f4xx_flash.o
 .debug_aranges
                0x00000000       0x20 ../../../../1_Processor/STM32F4/STM32F4-Discovery_FW_V1.1.0/Libraries/STM32F4xx_StdPeriph_Driver/src/stm32f4xx_flash.o
 .debug_line    0x00000000      0x3c8 ../../../../1_Processor/STM32F4/STM32F4-Discovery_FW_V1.1.0/Libraries/STM32F4xx_StdPeriph_Driver/src/stm32f4xx_flash.o
 .debug_str     0x00000000      0x65c ../../../../1_Processor/STM32F4/STM32F4-Discovery_FW_V1.1.0/Libraries/STM32F4xx_StdPeriph_Driver/src/stm32f4xx_flash.o
 .comment       0x00000000       0x6f ../../../../1_Processor/STM32F4/STM32F4-Discovery_FW_V1.1.0/Libraries/STM32F4xx_StdPeriph_Driver/src/stm32f4xx_flash.o
 .debug_frame   0x00000000      0x260 ../../../../1_Processor/STM32F4/STM32F4-Discovery_FW_V1.1.0/Libraries/STM32F4xx_StdPeriph_Driver/src/stm32f4xx_flash.o
 .ARM.attributes
                0x00000000       0x39 ../../../../1_Processor/STM32F4/STM32F4-Discovery_FW_V1.1.0/Libraries/STM32F4xx_StdPeriph_Driver/src/stm32f4xx_flash.o
 .text          0x00000000      0x438 ../../../../1_Processor/STM32F4/STM32F4-Discovery_FW_V1.1.0/Libraries/STM32F4xx_StdPeriph_Driver/src/stm32f4xx_fsmc.o
 .data          0x00000000        0x0 ../../../../1_Processor/STM32F4/STM32F4-Discovery_FW_V1.1.0/Libraries/STM32F4xx_StdPeriph_Driver/src/stm32f4xx_fsmc.o
 .bss           0x00000000        0x0 ../../../../1_Processor/STM32F4/STM32F4-Discovery_FW_V1.1.0/Libraries/STM32F4xx_StdPeriph_Driver/src/stm32f4xx_fsmc.o
 .debug_info    0x00000000      0x9d6 ../../../../1_Processor/STM32F4/STM32F4-Discovery_FW_V1.1.0/Libraries/STM32F4xx_StdPeriph_Driver/src/stm32f4xx_fsmc.o
 .debug_abbrev  0x00000000      0x1c6 ../../../../1_Processor/STM32F4/STM32F4-Discovery_FW_V1.1.0/Libraries/STM32F4xx_StdPeriph_Driver/src/stm32f4xx_fsmc.o
 .debug_loc     0x00000000      0x46d ../../../../1_Processor/STM32F4/STM32F4-Discovery_FW_V1.1.0/Libraries/STM32F4xx_StdPeriph_Driver/src/stm32f4xx_fsmc.o
 .debug_aranges
                0x00000000       0x20 ../../../../1_Processor/STM32F4/STM32F4-Discovery_FW_V1.1.0/Libraries/STM32F4xx_StdPeriph_Driver/src/stm32f4xx_fsmc.o
 .debug_line    0x00000000      0x40a ../../../../1_Processor/STM32F4/STM32F4-Discovery_FW_V1.1.0/Libraries/STM32F4xx_StdPeriph_Driver/src/stm32f4xx_fsmc.o
 .debug_str     0x00000000      0x854 ../../../../1_Processor/STM32F4/STM32F4-Discovery_FW_V1.1.0/Libraries/STM32F4xx_StdPeriph_Driver/src/stm32f4xx_fsmc.o
 .comment       0x00000000       0x6f ../../../../1_Processor/STM32F4/STM32F4-Discovery_FW_V1.1.0/Libraries/STM32F4xx_StdPeriph_Driver/src/stm32f4xx_fsmc.o
 .debug_frame   0x00000000      0x168 ../../../../1_Processor/STM32F4/STM32F4-Discovery_FW_V1.1.0/Libraries/STM32F4xx_StdPeriph_Driver/src/stm32f4xx_fsmc.o
 .ARM.attributes
                0x00000000       0x39 ../../../../1_Processor/STM32F4/STM32F4-Discovery_FW_V1.1.0/Libraries/STM32F4xx_StdPeriph_Driver/src/stm32f4xx_fsmc.o
 .data          0x00000000        0x0 ../../../../1_Processor/STM32F4/STM32F4-Discovery_FW_V1.1.0/Libraries/STM32F4xx_StdPeriph_Driver/src/stm32f4xx_gpio.o
 .bss           0x00000000        0x0 ../../../../1_Processor/STM32F4/STM32F4-Discovery_FW_V1.1.0/Libraries/STM32F4xx_StdPeriph_Driver/src/stm32f4xx_gpio.o
 .text          0x00000000      0x1b4 ../../../../1_Processor/STM32F4/STM32F4-Discovery_FW_V1.1.0/Libraries/STM32F4xx_StdPeriph_Driver/src/stm32f4xx_hash.o
 .data          0x00000000        0x0 ../../../../1_Processor/STM32F4/STM32F4-Discovery_FW_V1.1.0/Libraries/STM32F4xx_StdPeriph_Driver/src/stm32f4xx_hash.o
 .bss           0x00000000        0x0 ../../../../1_Processor/STM32F4/STM32F4-Discovery_FW_V1.1.0/Libraries/STM32F4xx_StdPeriph_Driver/src/stm32f4xx_hash.o
 .debug_info    0x00000000      0x620 ../../../../1_Processor/STM32F4/STM32F4-Discovery_FW_V1.1.0/Libraries/STM32F4xx_StdPeriph_Driver/src/stm32f4xx_hash.o
 .debug_abbrev  0x00000000      0x231 ../../../../1_Processor/STM32F4/STM32F4-Discovery_FW_V1.1.0/Libraries/STM32F4xx_StdPeriph_Driver/src/stm32f4xx_hash.o
 .debug_loc     0x00000000      0x290 ../../../../1_Processor/STM32F4/STM32F4-Discovery_FW_V1.1.0/Libraries/STM32F4xx_StdPeriph_Driver/src/stm32f4xx_hash.o
 .debug_aranges
                0x00000000       0x20 ../../../../1_Processor/STM32F4/STM32F4-Discovery_FW_V1.1.0/Libraries/STM32F4xx_StdPeriph_Driver/src/stm32f4xx_hash.o
 .debug_line    0x00000000      0x362 ../../../../1_Processor/STM32F4/STM32F4-Discovery_FW_V1.1.0/Libraries/STM32F4xx_StdPeriph_Driver/src/stm32f4xx_hash.o
 .debug_str     0x00000000      0x513 ../../../../1_Processor/STM32F4/STM32F4-Discovery_FW_V1.1.0/Libraries/STM32F4xx_StdPeriph_Driver/src/stm32f4xx_hash.o
 .comment       0x00000000       0x6f ../../../../1_Processor/STM32F4/STM32F4-Discovery_FW_V1.1.0/Libraries/STM32F4xx_StdPeriph_Driver/src/stm32f4xx_hash.o
 .debug_frame   0x00000000      0x13c ../../../../1_Processor/STM32F4/STM32F4-Discovery_FW_V1.1.0/Libraries/STM32F4xx_StdPeriph_Driver/src/stm32f4xx_hash.o
 .ARM.attributes
                0x00000000       0x39 ../../../../1_Processor/STM32F4/STM32F4-Discovery_FW_V1.1.0/Libraries/STM32F4xx_StdPeriph_Driver/src/stm32f4xx_hash.o
 .text          0x00000000      0x1d4 ../../../../1_Processor/STM32F4/STM32F4-Discovery_FW_V1.1.0/Libraries/STM32F4xx_StdPeriph_Driver/src/stm32f4xx_hash_md5.o
 .data          0x00000000        0x0 ../../../../1_Processor/STM32F4/STM32F4-Discovery_FW_V1.1.0/Libraries/STM32F4xx_StdPeriph_Driver/src/stm32f4xx_hash_md5.o
 .bss           0x00000000        0x0 ../../../../1_Processor/STM32F4/STM32F4-Discovery_FW_V1.1.0/Libraries/STM32F4xx_StdPeriph_Driver/src/stm32f4xx_hash_md5.o
 .debug_info    0x00000000      0x682 ../../../../1_Processor/STM32F4/STM32F4-Discovery_FW_V1.1.0/Libraries/STM32F4xx_StdPeriph_Driver/src/stm32f4xx_hash_md5.o
 .debug_abbrev  0x00000000      0x1d3 ../../../../1_Processor/STM32F4/STM32F4-Discovery_FW_V1.1.0/Libraries/STM32F4xx_StdPeriph_Driver/src/stm32f4xx_hash_md5.o
 .debug_loc     0x00000000      0x535 ../../../../1_Processor/STM32F4/STM32F4-Discovery_FW_V1.1.0/Libraries/STM32F4xx_StdPeriph_Driver/src/stm32f4xx_hash_md5.o
 .debug_aranges
                0x00000000       0x20 ../../../../1_Processor/STM32F4/STM32F4-Discovery_FW_V1.1.0/Libraries/STM32F4xx_StdPeriph_Driver/src/stm32f4xx_hash_md5.o
 .debug_line    0x00000000      0x42d ../../../../1_Processor/STM32F4/STM32F4-Discovery_FW_V1.1.0/Libraries/STM32F4xx_StdPeriph_Driver/src/stm32f4xx_hash_md5.o
 .debug_str     0x00000000      0x42e ../../../../1_Processor/STM32F4/STM32F4-Discovery_FW_V1.1.0/Libraries/STM32F4xx_StdPeriph_Driver/src/stm32f4xx_hash_md5.o
 .comment       0x00000000       0x6f ../../../../1_Processor/STM32F4/STM32F4-Discovery_FW_V1.1.0/Libraries/STM32F4xx_StdPeriph_Driver/src/stm32f4xx_hash_md5.o
 .debug_frame   0x00000000       0x5c ../../../../1_Processor/STM32F4/STM32F4-Discovery_FW_V1.1.0/Libraries/STM32F4xx_StdPeriph_Driver/src/stm32f4xx_hash_md5.o
 .ARM.attributes
                0x00000000       0x39 ../../../../1_Processor/STM32F4/STM32F4-Discovery_FW_V1.1.0/Libraries/STM32F4xx_StdPeriph_Driver/src/stm32f4xx_hash_md5.o
 .text          0x00000000      0x1de ../../../../1_Processor/STM32F4/STM32F4-Discovery_FW_V1.1.0/Libraries/STM32F4xx_StdPeriph_Driver/src/stm32f4xx_hash_sha1.o
 .data          0x00000000        0x0 ../../../../1_Processor/STM32F4/STM32F4-Discovery_FW_V1.1.0/Libraries/STM32F4xx_StdPeriph_Driver/src/stm32f4xx_hash_sha1.o
 .bss           0x00000000        0x0 ../../../../1_Processor/STM32F4/STM32F4-Discovery_FW_V1.1.0/Libraries/STM32F4xx_StdPeriph_Driver/src/stm32f4xx_hash_sha1.o
 .debug_info    0x00000000      0x6db ../../../../1_Processor/STM32F4/STM32F4-Discovery_FW_V1.1.0/Libraries/STM32F4xx_StdPeriph_Driver/src/stm32f4xx_hash_sha1.o
 .debug_abbrev  0x00000000      0x1d3 ../../../../1_Processor/STM32F4/STM32F4-Discovery_FW_V1.1.0/Libraries/STM32F4xx_StdPeriph_Driver/src/stm32f4xx_hash_sha1.o
 .debug_loc     0x00000000      0x577 ../../../../1_Processor/STM32F4/STM32F4-Discovery_FW_V1.1.0/Libraries/STM32F4xx_StdPeriph_Driver/src/stm32f4xx_hash_sha1.o
 .debug_aranges
                0x00000000       0x20 ../../../../1_Processor/STM32F4/STM32F4-Discovery_FW_V1.1.0/Libraries/STM32F4xx_StdPeriph_Driver/src/stm32f4xx_hash_sha1.o
 .debug_line    0x00000000      0x444 ../../../../1_Processor/STM32F4/STM32F4-Discovery_FW_V1.1.0/Libraries/STM32F4xx_StdPeriph_Driver/src/stm32f4xx_hash_sha1.o
 .debug_str     0x00000000      0x433 ../../../../1_Processor/STM32F4/STM32F4-Discovery_FW_V1.1.0/Libraries/STM32F4xx_StdPeriph_Driver/src/stm32f4xx_hash_sha1.o
 .comment       0x00000000       0x6f ../../../../1_Processor/STM32F4/STM32F4-Discovery_FW_V1.1.0/Libraries/STM32F4xx_StdPeriph_Driver/src/stm32f4xx_hash_sha1.o
 .debug_frame   0x00000000       0x5c ../../../../1_Processor/STM32F4/STM32F4-Discovery_FW_V1.1.0/Libraries/STM32F4xx_StdPeriph_Driver/src/stm32f4xx_hash_sha1.o
 .ARM.attributes
                0x00000000       0x39 ../../../../1_Processor/STM32F4/STM32F4-Discovery_FW_V1.1.0/Libraries/STM32F4xx_StdPeriph_Driver/src/stm32f4xx_hash_sha1.o
 .text          0x00000000      0x3cc ../../../../1_Processor/STM32F4/STM32F4-Discovery_FW_V1.1.0/Libraries/STM32F4xx_StdPeriph_Driver/src/stm32f4xx_i2c.o
 .data          0x00000000        0x0 ../../../../1_Processor/STM32F4/STM32F4-Discovery_FW_V1.1.0/Libraries/STM32F4xx_StdPeriph_Driver/src/stm32f4xx_i2c.o
 .bss           0x00000000        0x0 ../../../../1_Processor/STM32F4/STM32F4-Discovery_FW_V1.1.0/Libraries/STM32F4xx_StdPeriph_Driver/src/stm32f4xx_i2c.o
 .debug_info    0x00000000      0xbda ../../../../1_Processor/STM32F4/STM32F4-Discovery_FW_V1.1.0/Libraries/STM32F4xx_StdPeriph_Driver/src/stm32f4xx_i2c.o
 .debug_abbrev  0x00000000      0x24f ../../../../1_Processor/STM32F4/STM32F4-Discovery_FW_V1.1.0/Libraries/STM32F4xx_StdPeriph_Driver/src/stm32f4xx_i2c.o
 .debug_loc     0x00000000      0x6e1 ../../../../1_Processor/STM32F4/STM32F4-Discovery_FW_V1.1.0/Libraries/STM32F4xx_StdPeriph_Driver/src/stm32f4xx_i2c.o
 .debug_aranges
                0x00000000       0x20 ../../../../1_Processor/STM32F4/STM32F4-Discovery_FW_V1.1.0/Libraries/STM32F4xx_StdPeriph_Driver/src/stm32f4xx_i2c.o
 .debug_line    0x00000000      0x41f ../../../../1_Processor/STM32F4/STM32F4-Discovery_FW_V1.1.0/Libraries/STM32F4xx_StdPeriph_Driver/src/stm32f4xx_i2c.o
 .debug_str     0x00000000      0x722 ../../../../1_Processor/STM32F4/STM32F4-Discovery_FW_V1.1.0/Libraries/STM32F4xx_StdPeriph_Driver/src/stm32f4xx_i2c.o
 .comment       0x00000000       0x6f ../../../../1_Processor/STM32F4/STM32F4-Discovery_FW_V1.1.0/Libraries/STM32F4xx_StdPeriph_Driver/src/stm32f4xx_i2c.o
 .debug_frame   0x00000000      0x250 ../../../../1_Processor/STM32F4/STM32F4-Discovery_FW_V1.1.0/Libraries/STM32F4xx_StdPeriph_Driver/src/stm32f4xx_i2c.o
 .ARM.attributes
                0x00000000       0x39 ../../../../1_Processor/STM32F4/STM32F4-Discovery_FW_V1.1.0/Libraries/STM32F4xx_StdPeriph_Driver/src/stm32f4xx_i2c.o
 .text          0x00000000       0x58 ../../../../1_Processor/STM32F4/STM32F4-Discovery_FW_V1.1.0/Libraries/STM32F4xx_StdPeriph_Driver/src/stm32f4xx_iwdg.o
 .data          0x00000000        0x0 ../../../../1_Processor/STM32F4/STM32F4-Discovery_FW_V1.1.0/Libraries/STM32F4xx_StdPeriph_Driver/src/stm32f4xx_iwdg.o
 .bss           0x00000000        0x0 ../../../../1_Processor/STM32F4/STM32F4-Discovery_FW_V1.1.0/Libraries/STM32F4xx_StdPeriph_Driver/src/stm32f4xx_iwdg.o
 .debug_info    0x00000000      0x233 ../../../../1_Processor/STM32F4/STM32F4-Discovery_FW_V1.1.0/Libraries/STM32F4xx_StdPeriph_Driver/src/stm32f4xx_iwdg.o
 .debug_abbrev  0x00000000      0x114 ../../../../1_Processor/STM32F4/STM32F4-Discovery_FW_V1.1.0/Libraries/STM32F4xx_StdPeriph_Driver/src/stm32f4xx_iwdg.o
 .debug_loc     0x00000000       0x62 ../../../../1_Processor/STM32F4/STM32F4-Discovery_FW_V1.1.0/Libraries/STM32F4xx_StdPeriph_Driver/src/stm32f4xx_iwdg.o
 .debug_aranges
                0x00000000       0x20 ../../../../1_Processor/STM32F4/STM32F4-Discovery_FW_V1.1.0/Libraries/STM32F4xx_StdPeriph_Driver/src/stm32f4xx_iwdg.o
 .debug_line    0x00000000      0x266 ../../../../1_Processor/STM32F4/STM32F4-Discovery_FW_V1.1.0/Libraries/STM32F4xx_StdPeriph_Driver/src/stm32f4xx_iwdg.o
 .debug_str     0x00000000      0x336 ../../../../1_Processor/STM32F4/STM32F4-Discovery_FW_V1.1.0/Libraries/STM32F4xx_StdPeriph_Driver/src/stm32f4xx_iwdg.o
 .comment       0x00000000       0x6f ../../../../1_Processor/STM32F4/STM32F4-Discovery_FW_V1.1.0/Libraries/STM32F4xx_StdPeriph_Driver/src/stm32f4xx_iwdg.o
 .debug_frame   0x00000000       0x70 ../../../../1_Processor/STM32F4/STM32F4-Discovery_FW_V1.1.0/Libraries/STM32F4xx_StdPeriph_Driver/src/stm32f4xx_iwdg.o
 .ARM.attributes
                0x00000000       0x39 ../../../../1_Processor/STM32F4/STM32F4-Discovery_FW_V1.1.0/Libraries/STM32F4xx_StdPeriph_Driver/src/stm32f4xx_iwdg.o
 .data          0x00000000        0x0 ../../../../1_Processor/STM32F4/STM32F4-Discovery_FW_V1.1.0/Libraries/STM32F4xx_StdPeriph_Driver/src/stm32f4xx_pwr.o
 .bss           0x00000000        0x0 ../../../../1_Processor/STM32F4/STM32F4-Discovery_FW_V1.1.0/Libraries/STM32F4xx_StdPeriph_Driver/src/stm32f4xx_pwr.o
 .bss           0x00000000        0x0 ../../../../1_Processor/STM32F4/STM32F4-Discovery_FW_V1.1.0/Libraries/STM32F4xx_StdPeriph_Driver/src/stm32f4xx_rcc.o
 .text          0x00000000       0x8c ../../../../1_Processor/STM32F4/STM32F4-Discovery_FW_V1.1.0/Libraries/STM32F4xx_StdPeriph_Driver/src/stm32f4xx_rng.o
 .data          0x00000000        0x0 ../../../../1_Processor/STM32F4/STM32F4-Discovery_FW_V1.1.0/Libraries/STM32F4xx_StdPeriph_Driver/src/stm32f4xx_rng.o
 .bss           0x00000000        0x0 ../../../../1_Processor/STM32F4/STM32F4-Discovery_FW_V1.1.0/Libraries/STM32F4xx_StdPeriph_Driver/src/stm32f4xx_rng.o
 .debug_info    0x00000000      0x2af ../../../../1_Processor/STM32F4/STM32F4-Discovery_FW_V1.1.0/Libraries/STM32F4xx_StdPeriph_Driver/src/stm32f4xx_rng.o
 .debug_abbrev  0x00000000      0x192 ../../../../1_Processor/STM32F4/STM32F4-Discovery_FW_V1.1.0/Libraries/STM32F4xx_StdPeriph_Driver/src/stm32f4xx_rng.o
 .debug_loc     0x00000000       0xce ../../../../1_Processor/STM32F4/STM32F4-Discovery_FW_V1.1.0/Libraries/STM32F4xx_StdPeriph_Driver/src/stm32f4xx_rng.o
 .debug_aranges
                0x00000000       0x20 ../../../../1_Processor/STM32F4/STM32F4-Discovery_FW_V1.1.0/Libraries/STM32F4xx_StdPeriph_Driver/src/stm32f4xx_rng.o
 .debug_line    0x00000000      0x2ec ../../../../1_Processor/STM32F4/STM32F4-Discovery_FW_V1.1.0/Libraries/STM32F4xx_StdPeriph_Driver/src/stm32f4xx_rng.o
 .debug_str     0x00000000      0x33d ../../../../1_Processor/STM32F4/STM32F4-Discovery_FW_V1.1.0/Libraries/STM32F4xx_StdPeriph_Driver/src/stm32f4xx_rng.o
 .comment       0x00000000       0x6f ../../../../1_Processor/STM32F4/STM32F4-Discovery_FW_V1.1.0/Libraries/STM32F4xx_StdPeriph_Driver/src/stm32f4xx_rng.o
 .debug_frame   0x00000000       0x9c ../../../../1_Processor/STM32F4/STM32F4-Discovery_FW_V1.1.0/Libraries/STM32F4xx_StdPeriph_Driver/src/stm32f4xx_rng.o
 .ARM.attributes
                0x00000000       0x39 ../../../../1_Processor/STM32F4/STM32F4-Discovery_FW_V1.1.0/Libraries/STM32F4xx_StdPeriph_Driver/src/stm32f4xx_rng.o
 .data          0x00000000        0x0 ../../../../1_Processor/STM32F4/STM32F4-Discovery_FW_V1.1.0/Libraries/STM32F4xx_StdPeriph_Driver/src/stm32f4xx_rtc.o
 .bss           0x00000000        0x0 ../../../../1_Processor/STM32F4/STM32F4-Discovery_FW_V1.1.0/Libraries/STM32F4xx_StdPeriph_Driver/src/stm32f4xx_rtc.o
 .text          0x00000000      0x20c ../../../../1_Processor/STM32F4/STM32F4-Discovery_FW_V1.1.0/Libraries/STM32F4xx_StdPeriph_Driver/src/stm32f4xx_sdio.o
 .data          0x00000000        0x0 ../../../../1_Processor/STM32F4/STM32F4-Discovery_FW_V1.1.0/Libraries/STM32F4xx_StdPeriph_Driver/src/stm32f4xx_sdio.o
 .bss           0x00000000        0x0 ../../../../1_Processor/STM32F4/STM32F4-Discovery_FW_V1.1.0/Libraries/STM32F4xx_StdPeriph_Driver/src/stm32f4xx_sdio.o
 .debug_info    0x00000000      0x8a3 ../../../../1_Processor/STM32F4/STM32F4-Discovery_FW_V1.1.0/Libraries/STM32F4xx_StdPeriph_Driver/src/stm32f4xx_sdio.o
 .debug_abbrev  0x00000000      0x21c ../../../../1_Processor/STM32F4/STM32F4-Discovery_FW_V1.1.0/Libraries/STM32F4xx_StdPeriph_Driver/src/stm32f4xx_sdio.o
 .debug_loc     0x00000000      0x23e ../../../../1_Processor/STM32F4/STM32F4-Discovery_FW_V1.1.0/Libraries/STM32F4xx_StdPeriph_Driver/src/stm32f4xx_sdio.o
 .debug_aranges
                0x00000000       0x20 ../../../../1_Processor/STM32F4/STM32F4-Discovery_FW_V1.1.0/Libraries/STM32F4xx_StdPeriph_Driver/src/stm32f4xx_sdio.o
 .debug_line    0x00000000      0x387 ../../../../1_Processor/STM32F4/STM32F4-Discovery_FW_V1.1.0/Libraries/STM32F4xx_StdPeriph_Driver/src/stm32f4xx_sdio.o
 .debug_str     0x00000000      0x6ea ../../../../1_Processor/STM32F4/STM32F4-Discovery_FW_V1.1.0/Libraries/STM32F4xx_StdPeriph_Driver/src/stm32f4xx_sdio.o
 .comment       0x00000000       0x6f ../../../../1_Processor/STM32F4/STM32F4-Discovery_FW_V1.1.0/Libraries/STM32F4xx_StdPeriph_Driver/src/stm32f4xx_sdio.o
 .debug_frame   0x00000000      0x21c ../../../../1_Processor/STM32F4/STM32F4-Discovery_FW_V1.1.0/Libraries/STM32F4xx_StdPeriph_Driver/src/stm32f4xx_sdio.o
 .ARM.attributes
                0x00000000       0x39 ../../../../1_Processor/STM32F4/STM32F4-Discovery_FW_V1.1.0/Libraries/STM32F4xx_StdPeriph_Driver/src/stm32f4xx_sdio.o
 .text          0x00000000      0x350 ../../../../1_Processor/STM32F4/STM32F4-Discovery_FW_V1.1.0/Libraries/STM32F4xx_StdPeriph_Driver/src/stm32f4xx_spi.o
 .data          0x00000000        0x0 ../../../../1_Processor/STM32F4/STM32F4-Discovery_FW_V1.1.0/Libraries/STM32F4xx_StdPeriph_Driver/src/stm32f4xx_spi.o
 .bss           0x00000000        0x0 ../../../../1_Processor/STM32F4/STM32F4-Discovery_FW_V1.1.0/Libraries/STM32F4xx_StdPeriph_Driver/src/stm32f4xx_spi.o
 .debug_info    0x00000000      0xc8c ../../../../1_Processor/STM32F4/STM32F4-Discovery_FW_V1.1.0/Libraries/STM32F4xx_StdPeriph_Driver/src/stm32f4xx_spi.o
 .debug_abbrev  0x00000000      0x1f9 ../../../../1_Processor/STM32F4/STM32F4-Discovery_FW_V1.1.0/Libraries/STM32F4xx_StdPeriph_Driver/src/stm32f4xx_spi.o
 .debug_loc     0x00000000      0x73e ../../../../1_Processor/STM32F4/STM32F4-Discovery_FW_V1.1.0/Libraries/STM32F4xx_StdPeriph_Driver/src/stm32f4xx_spi.o
 .debug_aranges
                0x00000000       0x20 ../../../../1_Processor/STM32F4/STM32F4-Discovery_FW_V1.1.0/Libraries/STM32F4xx_StdPeriph_Driver/src/stm32f4xx_spi.o
 .debug_line    0x00000000      0x3fc ../../../../1_Processor/STM32F4/STM32F4-Discovery_FW_V1.1.0/Libraries/STM32F4xx_StdPeriph_Driver/src/stm32f4xx_spi.o
 .debug_str     0x00000000      0x782 ../../../../1_Processor/STM32F4/STM32F4-Discovery_FW_V1.1.0/Libraries/STM32F4xx_StdPeriph_Driver/src/stm32f4xx_spi.o
 .comment       0x00000000       0x6f ../../../../1_Processor/STM32F4/STM32F4-Discovery_FW_V1.1.0/Libraries/STM32F4xx_StdPeriph_Driver/src/stm32f4xx_spi.o
 .debug_frame   0x00000000      0x1e4 ../../../../1_Processor/STM32F4/STM32F4-Discovery_FW_V1.1.0/Libraries/STM32F4xx_StdPeriph_Driver/src/stm32f4xx_spi.o
 .ARM.attributes
                0x00000000       0x39 ../../../../1_Processor/STM32F4/STM32F4-Discovery_FW_V1.1.0/Libraries/STM32F4xx_StdPeriph_Driver/src/stm32f4xx_spi.o
 .data          0x00000000        0x0 ../../../../1_Processor/STM32F4/STM32F4-Discovery_FW_V1.1.0/Libraries/STM32F4xx_StdPeriph_Driver/src/stm32f4xx_syscfg.o
 .bss           0x00000000        0x0 ../../../../1_Processor/STM32F4/STM32F4-Discovery_FW_V1.1.0/Libraries/STM32F4xx_StdPeriph_Driver/src/stm32f4xx_syscfg.o
 .data          0x00000000        0x0 ../../../../1_Processor/STM32F4/STM32F4-Discovery_FW_V1.1.0/Libraries/STM32F4xx_StdPeriph_Driver/src/stm32f4xx_tim.o
 .bss           0x00000000        0x0 ../../../../1_Processor/STM32F4/STM32F4-Discovery_FW_V1.1.0/Libraries/STM32F4xx_StdPeriph_Driver/src/stm32f4xx_tim.o
 .data          0x00000000        0x0 ../../../../1_Processor/STM32F4/STM32F4-Discovery_FW_V1.1.0/Libraries/STM32F4xx_StdPeriph_Driver/src/stm32f4xx_usart.o
 .bss           0x00000000        0x0 ../../../../1_Processor/STM32F4/STM32F4-Discovery_FW_V1.1.0/Libraries/STM32F4xx_StdPeriph_Driver/src/stm32f4xx_usart.o
 .text          0x00000000       0x9c ../../../../1_Processor/STM32F4/STM32F4-Discovery_FW_V1.1.0/Libraries/STM32F4xx_StdPeriph_Driver/src/stm32f4xx_wwdg.o
 .data          0x00000000        0x0 ../../../../1_Processor/STM32F4/STM32F4-Discovery_FW_V1.1.0/Libraries/STM32F4xx_StdPeriph_Driver/src/stm32f4xx_wwdg.o
 .bss           0x00000000        0x0 ../../../../1_Processor/STM32F4/STM32F4-Discovery_FW_V1.1.0/Libraries/STM32F4xx_StdPeriph_Driver/src/stm32f4xx_wwdg.o
 .debug_info    0x00000000      0x2c4 ../../../../1_Processor/STM32F4/STM32F4-Discovery_FW_V1.1.0/Libraries/STM32F4xx_StdPeriph_Driver/src/stm32f4xx_wwdg.o
 .debug_abbrev  0x00000000      0x18e ../../../../1_Processor/STM32F4/STM32F4-Discovery_FW_V1.1.0/Libraries/STM32F4xx_StdPeriph_Driver/src/stm32f4xx_wwdg.o
 .debug_loc     0x00000000      0x129 ../../../../1_Processor/STM32F4/STM32F4-Discovery_FW_V1.1.0/Libraries/STM32F4xx_StdPeriph_Driver/src/stm32f4xx_wwdg.o
 .debug_aranges
                0x00000000       0x20 ../../../../1_Processor/STM32F4/STM32F4-Discovery_FW_V1.1.0/Libraries/STM32F4xx_StdPeriph_Driver/src/stm32f4xx_wwdg.o
 .debug_line    0x00000000      0x2ef ../../../../1_Processor/STM32F4/STM32F4-Discovery_FW_V1.1.0/Libraries/STM32F4xx_StdPeriph_Driver/src/stm32f4xx_wwdg.o
 .debug_str     0x00000000      0x358 ../../../../1_Processor/STM32F4/STM32F4-Discovery_FW_V1.1.0/Libraries/STM32F4xx_StdPeriph_Driver/src/stm32f4xx_wwdg.o
 .comment       0x00000000       0x6f ../../../../1_Processor/STM32F4/STM32F4-Discovery_FW_V1.1.0/Libraries/STM32F4xx_StdPeriph_Driver/src/stm32f4xx_wwdg.o
 .debug_frame   0x00000000       0xa4 ../../../../1_Processor/STM32F4/STM32F4-Discovery_FW_V1.1.0/Libraries/STM32F4xx_StdPeriph_Driver/src/stm32f4xx_wwdg.o
 .ARM.attributes
                0x00000000       0x39 ../../../../1_Processor/STM32F4/STM32F4-Discovery_FW_V1.1.0/Libraries/STM32F4xx_StdPeriph_Driver/src/stm32f4xx_wwdg.o
 .data          0x00000000        0x0 ../../../../1_Processor/STM32F4/BSPLIB/adc_dac.o
 .text          0x00000000      0x21c ../../../../1_Processor/STM32F4/BSPLIB/can.o
 .data          0x00000000        0x0 ../../../../1_Processor/STM32F4/BSPLIB/can.o
 .bss           0x00000000        0x0 ../../../../1_Processor/STM32F4/BSPLIB/can.o
 .debug_info    0x00000000      0xc2c ../../../../1_Processor/STM32F4/BSPLIB/can.o
 .debug_abbrev  0x00000000      0x1aa ../../../../1_Processor/STM32F4/BSPLIB/can.o
 .debug_loc     0x00000000      0x179 ../../../../1_Processor/STM32F4/BSPLIB/can.o
 .debug_aranges
                0x00000000       0x20 ../../../../1_Processor/STM32F4/BSPLIB/can.o
 .debug_line    0x00000000      0x336 ../../../../1_Processor/STM32F4/BSPLIB/can.o
 .debug_str     0x00000000      0x7c3 ../../../../1_Processor/STM32F4/BSPLIB/can.o
 .comment       0x00000000       0x6f ../../../../1_Processor/STM32F4/BSPLIB/can.o
 .debug_frame   0x00000000       0x58 ../../../../1_Processor/STM32F4/BSPLIB/can.o
 .ARM.attributes
                0x00000000       0x39 ../../../../1_Processor/STM32F4/BSPLIB/can.o
 .data          0x00000000        0x0 ../../../../1_Processor/STM32F4/BSPLIB/delay.o
 .data          0x00000000        0x0 ../../../../1_Processor/STM32F4/BSPLIB/encoder.o
 .bss           0x00000000        0x0 ../../../../1_Processor/STM32F4/BSPLIB/encoder.o
 .text          0x00000000      0x114 ../../../../1_Processor/STM32F4/BSPLIB/flash.o
 .data          0x00000000        0x0 ../../../../1_Processor/STM32F4/BSPLIB/flash.o
 .bss           0x00000000        0x0 ../../../../1_Processor/STM32F4/BSPLIB/flash.o
 .debug_info    0x00000000      0x392 ../../../../1_Processor/STM32F4/BSPLIB/flash.o
 .debug_abbrev  0x00000000      0x1a7 ../../../../1_Processor/STM32F4/BSPLIB/flash.o
 .debug_loc     0x00000000      0x37f ../../../../1_Processor/STM32F4/BSPLIB/flash.o
 .debug_aranges
                0x00000000       0x20 ../../../../1_Processor/STM32F4/BSPLIB/flash.o
 .debug_ranges  0x00000000       0x18 ../../../../1_Processor/STM32F4/BSPLIB/flash.o
 .debug_line    0x00000000      0x2dd ../../../../1_Processor/STM32F4/BSPLIB/flash.o
 .debug_str     0x00000000      0x3ba ../../../../1_Processor/STM32F4/BSPLIB/flash.o
 .comment       0x00000000       0x6f ../../../../1_Processor/STM32F4/BSPLIB/flash.o
 .debug_frame   0x00000000       0x6c ../../../../1_Processor/STM32F4/BSPLIB/flash.o
 .ARM.attributes
                0x00000000       0x39 ../../../../1_Processor/STM32F4/BSPLIB/flash.o
 .data          0x00000000        0x0 ../../../../1_Processor/STM32F4/BSPLIB/i2c.o
 .bss           0x00000000        0x0 ../../../../1_Processor/STM32F4/BSPLIB/i2c.o
 .data          0x00000000        0x0 ../../../../1_Processor/STM32F4/BSPLIB/nvic.o
 .bss           0x00000000        0x0 ../../../../1_Processor/STM32F4/BSPLIB/nvic.o
 .data          0x00000000        0x0 ../../../../1_Processor/STM32F4/BSPLIB/pwm_in.o
 .data          0x00000000        0x0 ../../../../1_Processor/STM32F4/BSPLIB/pwm_out.o
 .data          0x00000000        0x0 ../../../../1_Processor/STM32F4/BSPLIB/rtc.o
 .text          0x00000000      0x148 ../../../../1_Processor/STM32F4/BSPLIB/spi.o
 .data          0x00000000        0x0 ../../../../1_Processor/STM32F4/BSPLIB/spi.o
 .bss           0x00000000        0x0 ../../../../1_Processor/STM32F4/BSPLIB/spi.o
 .debug_info    0x00000000      0x7f8 ../../../../1_Processor/STM32F4/BSPLIB/spi.o
 .debug_abbrev  0x00000000      0x183 ../../../../1_Processor/STM32F4/BSPLIB/spi.o
 .debug_loc     0x00000000       0xe4 ../../../../1_Processor/STM32F4/BSPLIB/spi.o
 .debug_aranges
                0x00000000       0x20 ../../../../1_Processor/STM32F4/BSPLIB/spi.o
 .debug_line    0x00000000      0x2ee ../../../../1_Processor/STM32F4/BSPLIB/spi.o
 .debug_str     0x00000000      0x5f5 ../../../../1_Processor/STM32F4/BSPLIB/spi.o
 .comment       0x00000000       0x6f ../../../../1_Processor/STM32F4/BSPLIB/spi.o
 .debug_frame   0x00000000       0x50 ../../../../1_Processor/STM32F4/BSPLIB/spi.o
 .ARM.attributes
                0x00000000       0x39 ../../../../1_Processor/STM32F4/BSPLIB/spi.o
 .data          0x00000000        0x0 ../../../../1_Processor/STM32F4/BSPLIB/timer.o
 .bss           0x00000000        0x0 ../../../../1_Processor/STM32F4/BSPLIB/timer.o
 .data          0x00000000        0x4 ../../../../1_Processor/STM32F4/BSPLIB/usart.o
 .text          0x00000000      0x178 ../../../../1_Processor/STM32F4/BSPLIB/wdg_wkup.o
 .data          0x00000000        0x1 ../../../../1_Processor/STM32F4/BSPLIB/wdg_wkup.o
 .bss           0x00000000        0x0 ../../../../1_Processor/STM32F4/BSPLIB/wdg_wkup.o
 .debug_info    0x00000000      0xb7c ../../../../1_Processor/STM32F4/BSPLIB/wdg_wkup.o
 .debug_abbrev  0x00000000      0x27a ../../../../1_Processor/STM32F4/BSPLIB/wdg_wkup.o
 .debug_loc     0x00000000      0x1c8 ../../../../1_Processor/STM32F4/BSPLIB/wdg_wkup.o
 .debug_aranges
                0x00000000       0x20 ../../../../1_Processor/STM32F4/BSPLIB/wdg_wkup.o
 .debug_line    0x00000000      0x388 ../../../../1_Processor/STM32F4/BSPLIB/wdg_wkup.o
 .debug_str     0x00000000      0xcb2 ../../../../1_Processor/STM32F4/BSPLIB/wdg_wkup.o
 .comment       0x00000000       0x6f ../../../../1_Processor/STM32F4/BSPLIB/wdg_wkup.o
 .debug_frame   0x00000000       0xc4 ../../../../1_Processor/STM32F4/BSPLIB/wdg_wkup.o
 .ARM.attributes
                0x00000000       0x39 ../../../../1_Processor/STM32F4/BSPLIB/wdg_wkup.o
 .data          0x00000000        0x0 ../src/main.o
 .bss           0x00000000        0x0 ../src/main.o
 .data          0x00000000        0x0 ../src/stm32f4xx_it.o
 .bss           0x00000000        0x0 ../src/stm32f4xx_it.o
 .data          0x00000000        0x0 ../../../../1_Processor/BoardAbstract/control_unit_v1.o
 .text          0x00000000        0x0 ../../../../1_Processor/BoardAbstract/control_unit_v2.o
 .data          0x00000000        0x0 ../../../../1_Processor/BoardAbstract/control_unit_v2.o
 .bss           0x00000000        0x0 ../../../../1_Processor/BoardAbstract/control_unit_v2.o
 .debug_info    0x00000000       0xae ../../../../1_Processor/BoardAbstract/control_unit_v2.o
 .debug_abbrev  0x00000000       0x52 ../../../../1_Processor/BoardAbstract/control_unit_v2.o
 .debug_aranges
                0x00000000       0x18 ../../../../1_Processor/BoardAbstract/control_unit_v2.o
 .debug_line    0x00000000      0x154 ../../../../1_Processor/BoardAbstract/control_unit_v2.o
 .debug_str     0x00000000      0x27e ../../../../1_Processor/BoardAbstract/control_unit_v2.o
 .comment       0x00000000       0x6f ../../../../1_Processor/BoardAbstract/control_unit_v2.o
 .ARM.attributes
                0x00000000       0x39 ../../../../1_Processor/BoardAbstract/control_unit_v2.o
 .data          0x00000000        0x0 /home/kedou/Project/OpenRE/Tools/gcc-arm-none-eabi-5_4-2016q2/bin/../lib/gcc/arm-none-eabi/5.4.1/../../../../arm-none-eabi/lib/armv7e-m/fpu/libg.a(lib_a-memcpy.o)
 .bss           0x00000000        0x0 /home/kedou/Project/OpenRE/Tools/gcc-arm-none-eabi-5_4-2016q2/bin/../lib/gcc/arm-none-eabi/5.4.1/../../../../arm-none-eabi/lib/armv7e-m/fpu/libg.a(lib_a-memcpy.o)
 .text          0x00000000        0x0 /home/kedou/Project/OpenRE/Tools/gcc-arm-none-eabi-5_4-2016q2/bin/../lib/gcc/arm-none-eabi/5.4.1/../../../../arm-none-eabi/lib/armv7e-m/fpu/libg.a(lib_a-printf.o)
 .data          0x00000000        0x0 /home/kedou/Project/OpenRE/Tools/gcc-arm-none-eabi-5_4-2016q2/bin/../lib/gcc/arm-none-eabi/5.4.1/../../../../arm-none-eabi/lib/armv7e-m/fpu/libg.a(lib_a-printf.o)
 .bss           0x00000000        0x0 /home/kedou/Project/OpenRE/Tools/gcc-arm-none-eabi-5_4-2016q2/bin/../lib/gcc/arm-none-eabi/5.4.1/../../../../arm-none-eabi/lib/armv7e-m/fpu/libg.a(lib_a-printf.o)
 .text._printf_r
                0x00000000       0x20 /home/kedou/Project/OpenRE/Tools/gcc-arm-none-eabi-5_4-2016q2/bin/../lib/gcc/arm-none-eabi/5.4.1/../../../../arm-none-eabi/lib/armv7e-m/fpu/libg.a(lib_a-printf.o)
 .text          0x00000000        0x0 /home/kedou/Project/OpenRE/Tools/gcc-arm-none-eabi-5_4-2016q2/bin/../lib/gcc/arm-none-eabi/5.4.1/../../../../arm-none-eabi/lib/armv7e-m/fpu/libg.a(lib_a-puts.o)
 .data          0x00000000        0x0 /home/kedou/Project/OpenRE/Tools/gcc-arm-none-eabi-5_4-2016q2/bin/../lib/gcc/arm-none-eabi/5.4.1/../../../../arm-none-eabi/lib/armv7e-m/fpu/libg.a(lib_a-puts.o)
 .bss           0x00000000        0x0 /home/kedou/Project/OpenRE/Tools/gcc-arm-none-eabi-5_4-2016q2/bin/../lib/gcc/arm-none-eabi/5.4.1/../../../../arm-none-eabi/lib/armv7e-m/fpu/libg.a(lib_a-puts.o)
 .text          0x00000000        0x0 /home/kedou/Project/OpenRE/Tools/gcc-arm-none-eabi-5_4-2016q2/bin/../lib/gcc/arm-none-eabi/5.4.1/../../../../arm-none-eabi/lib/armv7e-m/fpu/libg.a(lib_a-reent.o)
 .data          0x00000000        0x0 /home/kedou/Project/OpenRE/Tools/gcc-arm-none-eabi-5_4-2016q2/bin/../lib/gcc/arm-none-eabi/5.4.1/../../../../arm-none-eabi/lib/armv7e-m/fpu/libg.a(lib_a-reent.o)
 .bss           0x00000000        0x0 /home/kedou/Project/OpenRE/Tools/gcc-arm-none-eabi-5_4-2016q2/bin/../lib/gcc/arm-none-eabi/5.4.1/../../../../arm-none-eabi/lib/armv7e-m/fpu/libg.a(lib_a-reent.o)
 .text.cleanup_glue
                0x00000000       0x1c /home/kedou/Project/OpenRE/Tools/gcc-arm-none-eabi-5_4-2016q2/bin/../lib/gcc/arm-none-eabi/5.4.1/../../../../arm-none-eabi/lib/armv7e-m/fpu/libg.a(lib_a-reent.o)
 .text._reclaim_reent
                0x00000000       0x88 /home/kedou/Project/OpenRE/Tools/gcc-arm-none-eabi-5_4-2016q2/bin/../lib/gcc/arm-none-eabi/5.4.1/../../../../arm-none-eabi/lib/armv7e-m/fpu/libg.a(lib_a-reent.o)
 .data          0x00000000        0x0 /home/kedou/Project/OpenRE/Tools/gcc-arm-none-eabi-5_4-2016q2/bin/../lib/gcc/arm-none-eabi/5.4.1/../../../../arm-none-eabi/lib/armv7e-m/fpu/libg.a(lib_a-strlen.o)
 .bss           0x00000000        0x0 /home/kedou/Project/OpenRE/Tools/gcc-arm-none-eabi-5_4-2016q2/bin/../lib/gcc/arm-none-eabi/5.4.1/../../../../arm-none-eabi/lib/armv7e-m/fpu/libg.a(lib_a-strlen.o)
 .text          0x00000000        0x0 /home/kedou/Project/OpenRE/Tools/gcc-arm-none-eabi-5_4-2016q2/bin/../lib/gcc/arm-none-eabi/5.4.1/../../../../arm-none-eabi/lib/armv7e-m/fpu/libg.a(lib_a-vfprintf.o)
 .data          0x00000000        0x0 /home/kedou/Project/OpenRE/Tools/gcc-arm-none-eabi-5_4-2016q2/bin/../lib/gcc/arm-none-eabi/5.4.1/../../../../arm-none-eabi/lib/armv7e-m/fpu/libg.a(lib_a-vfprintf.o)
 .bss           0x00000000        0x0 /home/kedou/Project/OpenRE/Tools/gcc-arm-none-eabi-5_4-2016q2/bin/../lib/gcc/arm-none-eabi/5.4.1/../../../../arm-none-eabi/lib/armv7e-m/fpu/libg.a(lib_a-vfprintf.o)
 .text.vfprintf
                0x00000000       0x18 /home/kedou/Project/OpenRE/Tools/gcc-arm-none-eabi-5_4-2016q2/bin/../lib/gcc/arm-none-eabi/5.4.1/../../../../arm-none-eabi/lib/armv7e-m/fpu/libg.a(lib_a-vfprintf.o)
 .text          0x00000000        0x0 /home/kedou/Project/OpenRE/Tools/gcc-arm-none-eabi-5_4-2016q2/bin/../lib/gcc/arm-none-eabi/5.4.1/../../../../arm-none-eabi/lib/armv7e-m/fpu/libg.a(lib_a-wsetup.o)
 .data          0x00000000        0x0 /home/kedou/Project/OpenRE/Tools/gcc-arm-none-eabi-5_4-2016q2/bin/../lib/gcc/arm-none-eabi/5.4.1/../../../../arm-none-eabi/lib/armv7e-m/fpu/libg.a(lib_a-wsetup.o)
 .bss           0x00000000        0x0 /home/kedou/Project/OpenRE/Tools/gcc-arm-none-eabi-5_4-2016q2/bin/../lib/gcc/arm-none-eabi/5.4.1/../../../../arm-none-eabi/lib/armv7e-m/fpu/libg.a(lib_a-wsetup.o)
 .text          0x00000000        0x0 /home/kedou/Project/OpenRE/Tools/gcc-arm-none-eabi-5_4-2016q2/bin/../lib/gcc/arm-none-eabi/5.4.1/../../../../arm-none-eabi/lib/armv7e-m/fpu/libg.a(lib_a-dtoa.o)
 .data          0x00000000        0x0 /home/kedou/Project/OpenRE/Tools/gcc-arm-none-eabi-5_4-2016q2/bin/../lib/gcc/arm-none-eabi/5.4.1/../../../../arm-none-eabi/lib/armv7e-m/fpu/libg.a(lib_a-dtoa.o)
 .bss           0x00000000        0x0 /home/kedou/Project/OpenRE/Tools/gcc-arm-none-eabi-5_4-2016q2/bin/../lib/gcc/arm-none-eabi/5.4.1/../../../../arm-none-eabi/lib/armv7e-m/fpu/libg.a(lib_a-dtoa.o)
 .text          0x00000000        0x0 /home/kedou/Project/OpenRE/Tools/gcc-arm-none-eabi-5_4-2016q2/bin/../lib/gcc/arm-none-eabi/5.4.1/../../../../arm-none-eabi/lib/armv7e-m/fpu/libg.a(lib_a-fflush.o)
 .data          0x00000000        0x0 /home/kedou/Project/OpenRE/Tools/gcc-arm-none-eabi-5_4-2016q2/bin/../lib/gcc/arm-none-eabi/5.4.1/../../../../arm-none-eabi/lib/armv7e-m/fpu/libg.a(lib_a-fflush.o)
 .bss           0x00000000        0x0 /home/kedou/Project/OpenRE/Tools/gcc-arm-none-eabi-5_4-2016q2/bin/../lib/gcc/arm-none-eabi/5.4.1/../../../../arm-none-eabi/lib/armv7e-m/fpu/libg.a(lib_a-fflush.o)
 .text.fflush   0x00000000       0x24 /home/kedou/Project/OpenRE/Tools/gcc-arm-none-eabi-5_4-2016q2/bin/../lib/gcc/arm-none-eabi/5.4.1/../../../../arm-none-eabi/lib/armv7e-m/fpu/libg.a(lib_a-fflush.o)
 .text          0x00000000        0x0 /home/kedou/Project/OpenRE/Tools/gcc-arm-none-eabi-5_4-2016q2/bin/../lib/gcc/arm-none-eabi/5.4.1/../../../../arm-none-eabi/lib/armv7e-m/fpu/libg.a(lib_a-findfp.o)
 .data          0x00000000        0x0 /home/kedou/Project/OpenRE/Tools/gcc-arm-none-eabi-5_4-2016q2/bin/../lib/gcc/arm-none-eabi/5.4.1/../../../../arm-none-eabi/lib/armv7e-m/fpu/libg.a(lib_a-findfp.o)
 .bss           0x00000000        0x0 /home/kedou/Project/OpenRE/Tools/gcc-arm-none-eabi-5_4-2016q2/bin/../lib/gcc/arm-none-eabi/5.4.1/../../../../arm-none-eabi/lib/armv7e-m/fpu/libg.a(lib_a-findfp.o)
 .text.__fp_unlock
                0x00000000        0x4 /home/kedou/Project/OpenRE/Tools/gcc-arm-none-eabi-5_4-2016q2/bin/../lib/gcc/arm-none-eabi/5.4.1/../../../../arm-none-eabi/lib/armv7e-m/fpu/libg.a(lib_a-findfp.o)
 .text.__fp_lock
                0x00000000        0x4 /home/kedou/Project/OpenRE/Tools/gcc-arm-none-eabi-5_4-2016q2/bin/../lib/gcc/arm-none-eabi/5.4.1/../../../../arm-none-eabi/lib/armv7e-m/fpu/libg.a(lib_a-findfp.o)
 .text.__sfmoreglue
                0x00000000       0x30 /home/kedou/Project/OpenRE/Tools/gcc-arm-none-eabi-5_4-2016q2/bin/../lib/gcc/arm-none-eabi/5.4.1/../../../../arm-none-eabi/lib/armv7e-m/fpu/libg.a(lib_a-findfp.o)
 .text.__sfp    0x00000000       0x88 /home/kedou/Project/OpenRE/Tools/gcc-arm-none-eabi-5_4-2016q2/bin/../lib/gcc/arm-none-eabi/5.4.1/../../../../arm-none-eabi/lib/armv7e-m/fpu/libg.a(lib_a-findfp.o)
 .text._cleanup
                0x00000000       0x14 /home/kedou/Project/OpenRE/Tools/gcc-arm-none-eabi-5_4-2016q2/bin/../lib/gcc/arm-none-eabi/5.4.1/../../../../arm-none-eabi/lib/armv7e-m/fpu/libg.a(lib_a-findfp.o)
 .text.__sinit_lock_acquire
                0x00000000        0x4 /home/kedou/Project/OpenRE/Tools/gcc-arm-none-eabi-5_4-2016q2/bin/../lib/gcc/arm-none-eabi/5.4.1/../../../../arm-none-eabi/lib/armv7e-m/fpu/libg.a(lib_a-findfp.o)
 .text.__sinit_lock_release
                0x00000000        0x4 /home/kedou/Project/OpenRE/Tools/gcc-arm-none-eabi-5_4-2016q2/bin/../lib/gcc/arm-none-eabi/5.4.1/../../../../arm-none-eabi/lib/armv7e-m/fpu/libg.a(lib_a-findfp.o)
 .text.__fp_lock_all
                0x00000000       0x14 /home/kedou/Project/OpenRE/Tools/gcc-arm-none-eabi-5_4-2016q2/bin/../lib/gcc/arm-none-eabi/5.4.1/../../../../arm-none-eabi/lib/armv7e-m/fpu/libg.a(lib_a-findfp.o)
 .text.__fp_unlock_all
                0x00000000       0x14 /home/kedou/Project/OpenRE/Tools/gcc-arm-none-eabi-5_4-2016q2/bin/../lib/gcc/arm-none-eabi/5.4.1/../../../../arm-none-eabi/lib/armv7e-m/fpu/libg.a(lib_a-findfp.o)
 .text          0x00000000        0x0 /home/kedou/Project/OpenRE/Tools/gcc-arm-none-eabi-5_4-2016q2/bin/../lib/gcc/arm-none-eabi/5.4.1/../../../../arm-none-eabi/lib/armv7e-m/fpu/libg.a(lib_a-freer.o)
 .data          0x00000000        0x0 /home/kedou/Project/OpenRE/Tools/gcc-arm-none-eabi-5_4-2016q2/bin/../lib/gcc/arm-none-eabi/5.4.1/../../../../arm-none-eabi/lib/armv7e-m/fpu/libg.a(lib_a-freer.o)
 .bss           0x00000000        0x0 /home/kedou/Project/OpenRE/Tools/gcc-arm-none-eabi-5_4-2016q2/bin/../lib/gcc/arm-none-eabi/5.4.1/../../../../arm-none-eabi/lib/armv7e-m/fpu/libg.a(lib_a-freer.o)
 .text          0x00000000        0x0 /home/kedou/Project/OpenRE/Tools/gcc-arm-none-eabi-5_4-2016q2/bin/../lib/gcc/arm-none-eabi/5.4.1/../../../../arm-none-eabi/lib/armv7e-m/fpu/libg.a(lib_a-fvwrite.o)
 .data          0x00000000        0x0 /home/kedou/Project/OpenRE/Tools/gcc-arm-none-eabi-5_4-2016q2/bin/../lib/gcc/arm-none-eabi/5.4.1/../../../../arm-none-eabi/lib/armv7e-m/fpu/libg.a(lib_a-fvwrite.o)
 .bss           0x00000000        0x0 /home/kedou/Project/OpenRE/Tools/gcc-arm-none-eabi-5_4-2016q2/bin/../lib/gcc/arm-none-eabi/5.4.1/../../../../arm-none-eabi/lib/armv7e-m/fpu/libg.a(lib_a-fvwrite.o)
 .text          0x00000000        0x0 /home/kedou/Project/OpenRE/Tools/gcc-arm-none-eabi-5_4-2016q2/bin/../lib/gcc/arm-none-eabi/5.4.1/../../../../arm-none-eabi/lib/armv7e-m/fpu/libg.a(lib_a-fwalk.o)
 .data          0x00000000        0x0 /home/kedou/Project/OpenRE/Tools/gcc-arm-none-eabi-5_4-2016q2/bin/../lib/gcc/arm-none-eabi/5.4.1/../../../../arm-none-eabi/lib/armv7e-m/fpu/libg.a(lib_a-fwalk.o)
 .bss           0x00000000        0x0 /home/kedou/Project/OpenRE/Tools/gcc-arm-none-eabi-5_4-2016q2/bin/../lib/gcc/arm-none-eabi/5.4.1/../../../../arm-none-eabi/lib/armv7e-m/fpu/libg.a(lib_a-fwalk.o)
 .text._fwalk   0x00000000       0x4c /home/kedou/Project/OpenRE/Tools/gcc-arm-none-eabi-5_4-2016q2/bin/../lib/gcc/arm-none-eabi/5.4.1/../../../../arm-none-eabi/lib/armv7e-m/fpu/libg.a(lib_a-fwalk.o)
 .text          0x00000000        0x0 /home/kedou/Project/OpenRE/Tools/gcc-arm-none-eabi-5_4-2016q2/bin/../lib/gcc/arm-none-eabi/5.4.1/../../../../arm-none-eabi/lib/armv7e-m/fpu/libg.a(lib_a-impure.o)
 .data          0x00000000        0x0 /home/kedou/Project/OpenRE/Tools/gcc-arm-none-eabi-5_4-2016q2/bin/../lib/gcc/arm-none-eabi/5.4.1/../../../../arm-none-eabi/lib/armv7e-m/fpu/libg.a(lib_a-impure.o)
 .bss           0x00000000        0x0 /home/kedou/Project/OpenRE/Tools/gcc-arm-none-eabi-5_4-2016q2/bin/../lib/gcc/arm-none-eabi/5.4.1/../../../../arm-none-eabi/lib/armv7e-m/fpu/libg.a(lib_a-impure.o)
 .rodata._global_impure_ptr
                0x00000000        0x4 /home/kedou/Project/OpenRE/Tools/gcc-arm-none-eabi-5_4-2016q2/bin/../lib/gcc/arm-none-eabi/5.4.1/../../../../arm-none-eabi/lib/armv7e-m/fpu/libg.a(lib_a-impure.o)
 .text          0x00000000        0x0 /home/kedou/Project/OpenRE/Tools/gcc-arm-none-eabi-5_4-2016q2/bin/../lib/gcc/arm-none-eabi/5.4.1/../../../../arm-none-eabi/lib/armv7e-m/fpu/libg.a(lib_a-locale.o)
 .data          0x00000000        0x0 /home/kedou/Project/OpenRE/Tools/gcc-arm-none-eabi-5_4-2016q2/bin/../lib/gcc/arm-none-eabi/5.4.1/../../../../arm-none-eabi/lib/armv7e-m/fpu/libg.a(lib_a-locale.o)
 .bss           0x00000000        0x0 /home/kedou/Project/OpenRE/Tools/gcc-arm-none-eabi-5_4-2016q2/bin/../lib/gcc/arm-none-eabi/5.4.1/../../../../arm-none-eabi/lib/armv7e-m/fpu/libg.a(lib_a-locale.o)
 .text._setlocale_r
                0x00000000       0x40 /home/kedou/Project/OpenRE/Tools/gcc-arm-none-eabi-5_4-2016q2/bin/../lib/gcc/arm-none-eabi/5.4.1/../../../../arm-none-eabi/lib/armv7e-m/fpu/libg.a(lib_a-locale.o)
 .text.__locale_msgcharset
                0x00000000        0x8 /home/kedou/Project/OpenRE/Tools/gcc-arm-none-eabi-5_4-2016q2/bin/../lib/gcc/arm-none-eabi/5.4.1/../../../../arm-none-eabi/lib/armv7e-m/fpu/libg.a(lib_a-locale.o)
 .text.__locale_cjk_lang
                0x00000000        0x4 /home/kedou/Project/OpenRE/Tools/gcc-arm-none-eabi-5_4-2016q2/bin/../lib/gcc/arm-none-eabi/5.4.1/../../../../arm-none-eabi/lib/armv7e-m/fpu/libg.a(lib_a-locale.o)
 .text.setlocale
                0x00000000       0x10 /home/kedou/Project/OpenRE/Tools/gcc-arm-none-eabi-5_4-2016q2/bin/../lib/gcc/arm-none-eabi/5.4.1/../../../../arm-none-eabi/lib/armv7e-m/fpu/libg.a(lib_a-locale.o)
 .text.localeconv
                0x00000000        0x8 /home/kedou/Project/OpenRE/Tools/gcc-arm-none-eabi-5_4-2016q2/bin/../lib/gcc/arm-none-eabi/5.4.1/../../../../arm-none-eabi/lib/armv7e-m/fpu/libg.a(lib_a-locale.o)
 .data.lc_message_charset
                0x00000000       0x20 /home/kedou/Project/OpenRE/Tools/gcc-arm-none-eabi-5_4-2016q2/bin/../lib/gcc/arm-none-eabi/5.4.1/../../../../arm-none-eabi/lib/armv7e-m/fpu/libg.a(lib_a-locale.o)
 .bss._PathLocale
                0x00000000        0x4 /home/kedou/Project/OpenRE/Tools/gcc-arm-none-eabi-5_4-2016q2/bin/../lib/gcc/arm-none-eabi/5.4.1/../../../../arm-none-eabi/lib/armv7e-m/fpu/libg.a(lib_a-locale.o)
 .bss.__nlocale_changed
                0x00000000        0x4 /home/kedou/Project/OpenRE/Tools/gcc-arm-none-eabi-5_4-2016q2/bin/../lib/gcc/arm-none-eabi/5.4.1/../../../../arm-none-eabi/lib/armv7e-m/fpu/libg.a(lib_a-locale.o)
 .bss.__mlocale_changed
                0x00000000        0x4 /home/kedou/Project/OpenRE/Tools/gcc-arm-none-eabi-5_4-2016q2/bin/../lib/gcc/arm-none-eabi/5.4.1/../../../../arm-none-eabi/lib/armv7e-m/fpu/libg.a(lib_a-locale.o)
 .text          0x00000000        0x0 /home/kedou/Project/OpenRE/Tools/gcc-arm-none-eabi-5_4-2016q2/bin/../lib/gcc/arm-none-eabi/5.4.1/../../../../arm-none-eabi/lib/armv7e-m/fpu/libg.a(lib_a-makebuf.o)
 .data          0x00000000        0x0 /home/kedou/Project/OpenRE/Tools/gcc-arm-none-eabi-5_4-2016q2/bin/../lib/gcc/arm-none-eabi/5.4.1/../../../../arm-none-eabi/lib/armv7e-m/fpu/libg.a(lib_a-makebuf.o)
 .bss           0x00000000        0x0 /home/kedou/Project/OpenRE/Tools/gcc-arm-none-eabi-5_4-2016q2/bin/../lib/gcc/arm-none-eabi/5.4.1/../../../../arm-none-eabi/lib/armv7e-m/fpu/libg.a(lib_a-makebuf.o)
 .text          0x00000000        0x0 /home/kedou/Project/OpenRE/Tools/gcc-arm-none-eabi-5_4-2016q2/bin/../lib/gcc/arm-none-eabi/5.4.1/../../../../arm-none-eabi/lib/armv7e-m/fpu/libg.a(lib_a-mallocr.o)
 .data          0x00000000        0x0 /home/kedou/Project/OpenRE/Tools/gcc-arm-none-eabi-5_4-2016q2/bin/../lib/gcc/arm-none-eabi/5.4.1/../../../../arm-none-eabi/lib/armv7e-m/fpu/libg.a(lib_a-mallocr.o)
 .bss           0x00000000        0x0 /home/kedou/Project/OpenRE/Tools/gcc-arm-none-eabi-5_4-2016q2/bin/../lib/gcc/arm-none-eabi/5.4.1/../../../../arm-none-eabi/lib/armv7e-m/fpu/libg.a(lib_a-mallocr.o)
 .data          0x00000000        0x0 /home/kedou/Project/OpenRE/Tools/gcc-arm-none-eabi-5_4-2016q2/bin/../lib/gcc/arm-none-eabi/5.4.1/../../../../arm-none-eabi/lib/armv7e-m/fpu/libg.a(lib_a-memchr.o)
 .bss           0x00000000        0x0 /home/kedou/Project/OpenRE/Tools/gcc-arm-none-eabi-5_4-2016q2/bin/../lib/gcc/arm-none-eabi/5.4.1/../../../../arm-none-eabi/lib/armv7e-m/fpu/libg.a(lib_a-memchr.o)
 .text          0x00000000        0x0 /home/kedou/Project/OpenRE/Tools/gcc-arm-none-eabi-5_4-2016q2/bin/../lib/gcc/arm-none-eabi/5.4.1/../../../../arm-none-eabi/lib/armv7e-m/fpu/libg.a(lib_a-memmove.o)
 .data          0x00000000        0x0 /home/kedou/Project/OpenRE/Tools/gcc-arm-none-eabi-5_4-2016q2/bin/../lib/gcc/arm-none-eabi/5.4.1/../../../../arm-none-eabi/lib/armv7e-m/fpu/libg.a(lib_a-memmove.o)
 .bss           0x00000000        0x0 /home/kedou/Project/OpenRE/Tools/gcc-arm-none-eabi-5_4-2016q2/bin/../lib/gcc/arm-none-eabi/5.4.1/../../../../arm-none-eabi/lib/armv7e-m/fpu/libg.a(lib_a-memmove.o)
 .text          0x00000000        0x0 /home/kedou/Project/OpenRE/Tools/gcc-arm-none-eabi-5_4-2016q2/bin/../lib/gcc/arm-none-eabi/5.4.1/../../../../arm-none-eabi/lib/armv7e-m/fpu/libg.a(lib_a-memset.o)
 .data          0x00000000        0x0 /home/kedou/Project/OpenRE/Tools/gcc-arm-none-eabi-5_4-2016q2/bin/../lib/gcc/arm-none-eabi/5.4.1/../../../../arm-none-eabi/lib/armv7e-m/fpu/libg.a(lib_a-memset.o)
 .bss           0x00000000        0x0 /home/kedou/Project/OpenRE/Tools/gcc-arm-none-eabi-5_4-2016q2/bin/../lib/gcc/arm-none-eabi/5.4.1/../../../../arm-none-eabi/lib/armv7e-m/fpu/libg.a(lib_a-memset.o)
 .text          0x00000000        0x0 /home/kedou/Project/OpenRE/Tools/gcc-arm-none-eabi-5_4-2016q2/bin/../lib/gcc/arm-none-eabi/5.4.1/../../../../arm-none-eabi/lib/armv7e-m/fpu/libg.a(lib_a-mlock.o)
 .data          0x00000000        0x0 /home/kedou/Project/OpenRE/Tools/gcc-arm-none-eabi-5_4-2016q2/bin/../lib/gcc/arm-none-eabi/5.4.1/../../../../arm-none-eabi/lib/armv7e-m/fpu/libg.a(lib_a-mlock.o)
 .bss           0x00000000        0x0 /home/kedou/Project/OpenRE/Tools/gcc-arm-none-eabi-5_4-2016q2/bin/../lib/gcc/arm-none-eabi/5.4.1/../../../../arm-none-eabi/lib/armv7e-m/fpu/libg.a(lib_a-mlock.o)
 .text          0x00000000        0x0 /home/kedou/Project/OpenRE/Tools/gcc-arm-none-eabi-5_4-2016q2/bin/../lib/gcc/arm-none-eabi/5.4.1/../../../../arm-none-eabi/lib/armv7e-m/fpu/libg.a(lib_a-mprec.o)
 .data          0x00000000        0x0 /home/kedou/Project/OpenRE/Tools/gcc-arm-none-eabi-5_4-2016q2/bin/../lib/gcc/arm-none-eabi/5.4.1/../../../../arm-none-eabi/lib/armv7e-m/fpu/libg.a(lib_a-mprec.o)
 .bss           0x00000000        0x0 /home/kedou/Project/OpenRE/Tools/gcc-arm-none-eabi-5_4-2016q2/bin/../lib/gcc/arm-none-eabi/5.4.1/../../../../arm-none-eabi/lib/armv7e-m/fpu/libg.a(lib_a-mprec.o)
 .text.__s2b    0x00000000       0x98 /home/kedou/Project/OpenRE/Tools/gcc-arm-none-eabi-5_4-2016q2/bin/../lib/gcc/arm-none-eabi/5.4.1/../../../../arm-none-eabi/lib/armv7e-m/fpu/libg.a(lib_a-mprec.o)
 .text.__ulp    0x00000000       0x54 /home/kedou/Project/OpenRE/Tools/gcc-arm-none-eabi-5_4-2016q2/bin/../lib/gcc/arm-none-eabi/5.4.1/../../../../arm-none-eabi/lib/armv7e-m/fpu/libg.a(lib_a-mprec.o)
 .text.__b2d    0x00000000       0xd0 /home/kedou/Project/OpenRE/Tools/gcc-arm-none-eabi-5_4-2016q2/bin/../lib/gcc/arm-none-eabi/5.4.1/../../../../arm-none-eabi/lib/armv7e-m/fpu/libg.a(lib_a-mprec.o)
 .text.__ratio  0x00000000       0x60 /home/kedou/Project/OpenRE/Tools/gcc-arm-none-eabi-5_4-2016q2/bin/../lib/gcc/arm-none-eabi/5.4.1/../../../../arm-none-eabi/lib/armv7e-m/fpu/libg.a(lib_a-mprec.o)
 .text._mprec_log10
                0x00000000       0x38 /home/kedou/Project/OpenRE/Tools/gcc-arm-none-eabi-5_4-2016q2/bin/../lib/gcc/arm-none-eabi/5.4.1/../../../../arm-none-eabi/lib/armv7e-m/fpu/libg.a(lib_a-mprec.o)
 .text.__copybits
                0x00000000       0x48 /home/kedou/Project/OpenRE/Tools/gcc-arm-none-eabi-5_4-2016q2/bin/../lib/gcc/arm-none-eabi/5.4.1/../../../../arm-none-eabi/lib/armv7e-m/fpu/libg.a(lib_a-mprec.o)
 .text.__any_on
                0x00000000       0x60 /home/kedou/Project/OpenRE/Tools/gcc-arm-none-eabi-5_4-2016q2/bin/../lib/gcc/arm-none-eabi/5.4.1/../../../../arm-none-eabi/lib/armv7e-m/fpu/libg.a(lib_a-mprec.o)
 .rodata.__mprec_tinytens
                0x00000000       0x28 /home/kedou/Project/OpenRE/Tools/gcc-arm-none-eabi-5_4-2016q2/bin/../lib/gcc/arm-none-eabi/5.4.1/../../../../arm-none-eabi/lib/armv7e-m/fpu/libg.a(lib_a-mprec.o)
 .text          0x00000000        0x0 /home/kedou/Project/OpenRE/Tools/gcc-arm-none-eabi-5_4-2016q2/bin/../lib/gcc/arm-none-eabi/5.4.1/../../../../arm-none-eabi/lib/armv7e-m/fpu/libg.a(lib_a-reallocr.o)
 .data          0x00000000        0x0 /home/kedou/Project/OpenRE/Tools/gcc-arm-none-eabi-5_4-2016q2/bin/../lib/gcc/arm-none-eabi/5.4.1/../../../../arm-none-eabi/lib/armv7e-m/fpu/libg.a(lib_a-reallocr.o)
 .bss           0x00000000        0x0 /home/kedou/Project/OpenRE/Tools/gcc-arm-none-eabi-5_4-2016q2/bin/../lib/gcc/arm-none-eabi/5.4.1/../../../../arm-none-eabi/lib/armv7e-m/fpu/libg.a(lib_a-reallocr.o)
 .text          0x00000000        0x0 /home/kedou/Project/OpenRE/Tools/gcc-arm-none-eabi-5_4-2016q2/bin/../lib/gcc/arm-none-eabi/5.4.1/../../../../arm-none-eabi/lib/armv7e-m/fpu/libg.a(lib_a-sbrkr.o)
 .data          0x00000000        0x0 /home/kedou/Project/OpenRE/Tools/gcc-arm-none-eabi-5_4-2016q2/bin/../lib/gcc/arm-none-eabi/5.4.1/../../../../arm-none-eabi/lib/armv7e-m/fpu/libg.a(lib_a-sbrkr.o)
 .bss           0x00000000        0x0 /home/kedou/Project/OpenRE/Tools/gcc-arm-none-eabi-5_4-2016q2/bin/../lib/gcc/arm-none-eabi/5.4.1/../../../../arm-none-eabi/lib/armv7e-m/fpu/libg.a(lib_a-sbrkr.o)
 .text          0x00000000        0x0 /home/kedou/Project/OpenRE/Tools/gcc-arm-none-eabi-5_4-2016q2/bin/../lib/gcc/arm-none-eabi/5.4.1/../../../../arm-none-eabi/lib/armv7e-m/fpu/libg.a(lib_a-stdio.o)
 .data          0x00000000        0x0 /home/kedou/Project/OpenRE/Tools/gcc-arm-none-eabi-5_4-2016q2/bin/../lib/gcc/arm-none-eabi/5.4.1/../../../../arm-none-eabi/lib/armv7e-m/fpu/libg.a(lib_a-stdio.o)
 .bss           0x00000000        0x0 /home/kedou/Project/OpenRE/Tools/gcc-arm-none-eabi-5_4-2016q2/bin/../lib/gcc/arm-none-eabi/5.4.1/../../../../arm-none-eabi/lib/armv7e-m/fpu/libg.a(lib_a-stdio.o)
 .text.__seofread
                0x00000000        0x4 /home/kedou/Project/OpenRE/Tools/gcc-arm-none-eabi-5_4-2016q2/bin/../lib/gcc/arm-none-eabi/5.4.1/../../../../arm-none-eabi/lib/armv7e-m/fpu/libg.a(lib_a-stdio.o)
 .text          0x00000000      0x2dc /home/kedou/Project/OpenRE/Tools/gcc-arm-none-eabi-5_4-2016q2/bin/../lib/gcc/arm-none-eabi/5.4.1/../../../../arm-none-eabi/lib/armv7e-m/fpu/libg.a(lib_a-strcmp.o)
 .data          0x00000000        0x0 /home/kedou/Project/OpenRE/Tools/gcc-arm-none-eabi-5_4-2016q2/bin/../lib/gcc/arm-none-eabi/5.4.1/../../../../arm-none-eabi/lib/armv7e-m/fpu/libg.a(lib_a-strcmp.o)
 .bss           0x00000000        0x0 /home/kedou/Project/OpenRE/Tools/gcc-arm-none-eabi-5_4-2016q2/bin/../lib/gcc/arm-none-eabi/5.4.1/../../../../arm-none-eabi/lib/armv7e-m/fpu/libg.a(lib_a-strcmp.o)
 .debug_frame   0x00000000       0x68 /home/kedou/Project/OpenRE/Tools/gcc-arm-none-eabi-5_4-2016q2/bin/../lib/gcc/arm-none-eabi/5.4.1/../../../../arm-none-eabi/lib/armv7e-m/fpu/libg.a(lib_a-strcmp.o)
 .ARM.attributes
                0x00000000       0x20 /home/kedou/Project/OpenRE/Tools/gcc-arm-none-eabi-5_4-2016q2/bin/../lib/gcc/arm-none-eabi/5.4.1/../../../../arm-none-eabi/lib/armv7e-m/fpu/libg.a(lib_a-strcmp.o)
 .text          0x00000000        0x0 /home/kedou/Project/OpenRE/Tools/gcc-arm-none-eabi-5_4-2016q2/bin/../lib/gcc/arm-none-eabi/5.4.1/../../../../arm-none-eabi/lib/armv7e-m/fpu/libg.a(lib_a-vfiprintf.o)
 .data          0x00000000        0x0 /home/kedou/Project/OpenRE/Tools/gcc-arm-none-eabi-5_4-2016q2/bin/../lib/gcc/arm-none-eabi/5.4.1/../../../../arm-none-eabi/lib/armv7e-m/fpu/libg.a(lib_a-vfiprintf.o)
 .bss           0x00000000        0x0 /home/kedou/Project/OpenRE/Tools/gcc-arm-none-eabi-5_4-2016q2/bin/../lib/gcc/arm-none-eabi/5.4.1/../../../../arm-none-eabi/lib/armv7e-m/fpu/libg.a(lib_a-vfiprintf.o)
 .text._vfiprintf_r
                0x00000000      0xdfc /home/kedou/Project/OpenRE/Tools/gcc-arm-none-eabi-5_4-2016q2/bin/../lib/gcc/arm-none-eabi/5.4.1/../../../../arm-none-eabi/lib/armv7e-m/fpu/libg.a(lib_a-vfiprintf.o)
 .text.vfiprintf
                0x00000000       0x18 /home/kedou/Project/OpenRE/Tools/gcc-arm-none-eabi-5_4-2016q2/bin/../lib/gcc/arm-none-eabi/5.4.1/../../../../arm-none-eabi/lib/armv7e-m/fpu/libg.a(lib_a-vfiprintf.o)
 .text.__sbprintf
                0x00000000       0x6c /home/kedou/Project/OpenRE/Tools/gcc-arm-none-eabi-5_4-2016q2/bin/../lib/gcc/arm-none-eabi/5.4.1/../../../../arm-none-eabi/lib/armv7e-m/fpu/libg.a(lib_a-vfiprintf.o)
 .rodata.blanks.7015
                0x00000000       0x10 /home/kedou/Project/OpenRE/Tools/gcc-arm-none-eabi-5_4-2016q2/bin/../lib/gcc/arm-none-eabi/5.4.1/../../../../arm-none-eabi/lib/armv7e-m/fpu/libg.a(lib_a-vfiprintf.o)
 .rodata.str1.4
                0x00000000       0x2f /home/kedou/Project/OpenRE/Tools/gcc-arm-none-eabi-5_4-2016q2/bin/../lib/gcc/arm-none-eabi/5.4.1/../../../../arm-none-eabi/lib/armv7e-m/fpu/libg.a(lib_a-vfiprintf.o)
 .rodata.zeroes.7016
                0x00000000       0x10 /home/kedou/Project/OpenRE/Tools/gcc-arm-none-eabi-5_4-2016q2/bin/../lib/gcc/arm-none-eabi/5.4.1/../../../../arm-none-eabi/lib/armv7e-m/fpu/libg.a(lib_a-vfiprintf.o)
 .text          0x00000000        0x0 /home/kedou/Project/OpenRE/Tools/gcc-arm-none-eabi-5_4-2016q2/bin/../lib/gcc/arm-none-eabi/5.4.1/../../../../arm-none-eabi/lib/armv7e-m/fpu/libg.a(lib_a-writer.o)
 .data          0x00000000        0x0 /home/kedou/Project/OpenRE/Tools/gcc-arm-none-eabi-5_4-2016q2/bin/../lib/gcc/arm-none-eabi/5.4.1/../../../../arm-none-eabi/lib/armv7e-m/fpu/libg.a(lib_a-writer.o)
 .bss           0x00000000        0x0 /home/kedou/Project/OpenRE/Tools/gcc-arm-none-eabi-5_4-2016q2/bin/../lib/gcc/arm-none-eabi/5.4.1/../../../../arm-none-eabi/lib/armv7e-m/fpu/libg.a(lib_a-writer.o)
 .text          0x00000000        0x0 /home/kedou/Project/OpenRE/Tools/gcc-arm-none-eabi-5_4-2016q2/bin/../lib/gcc/arm-none-eabi/5.4.1/../../../../arm-none-eabi/lib/armv7e-m/fpu/libg.a(lib_a-callocr.o)
 .data          0x00000000        0x0 /home/kedou/Project/OpenRE/Tools/gcc-arm-none-eabi-5_4-2016q2/bin/../lib/gcc/arm-none-eabi/5.4.1/../../../../arm-none-eabi/lib/armv7e-m/fpu/libg.a(lib_a-callocr.o)
 .bss           0x00000000        0x0 /home/kedou/Project/OpenRE/Tools/gcc-arm-none-eabi-5_4-2016q2/bin/../lib/gcc/arm-none-eabi/5.4.1/../../../../arm-none-eabi/lib/armv7e-m/fpu/libg.a(lib_a-callocr.o)
 .text          0x00000000        0x0 /home/kedou/Project/OpenRE/Tools/gcc-arm-none-eabi-5_4-2016q2/bin/../lib/gcc/arm-none-eabi/5.4.1/../../../../arm-none-eabi/lib/armv7e-m/fpu/libg.a(lib_a-closer.o)
 .data          0x00000000        0x0 /home/kedou/Project/OpenRE/Tools/gcc-arm-none-eabi-5_4-2016q2/bin/../lib/gcc/arm-none-eabi/5.4.1/../../../../arm-none-eabi/lib/armv7e-m/fpu/libg.a(lib_a-closer.o)
 .bss           0x00000000        0x0 /home/kedou/Project/OpenRE/Tools/gcc-arm-none-eabi-5_4-2016q2/bin/../lib/gcc/arm-none-eabi/5.4.1/../../../../arm-none-eabi/lib/armv7e-m/fpu/libg.a(lib_a-closer.o)
 .text          0x00000000        0x0 /home/kedou/Project/OpenRE/Tools/gcc-arm-none-eabi-5_4-2016q2/bin/../lib/gcc/arm-none-eabi/5.4.1/../../../../arm-none-eabi/lib/armv7e-m/fpu/libg.a(lib_a-fclose.o)
 .data          0x00000000        0x0 /home/kedou/Project/OpenRE/Tools/gcc-arm-none-eabi-5_4-2016q2/bin/../lib/gcc/arm-none-eabi/5.4.1/../../../../arm-none-eabi/lib/armv7e-m/fpu/libg.a(lib_a-fclose.o)
 .bss           0x00000000        0x0 /home/kedou/Project/OpenRE/Tools/gcc-arm-none-eabi-5_4-2016q2/bin/../lib/gcc/arm-none-eabi/5.4.1/../../../../arm-none-eabi/lib/armv7e-m/fpu/libg.a(lib_a-fclose.o)
 .text.fclose   0x00000000       0x10 /home/kedou/Project/OpenRE/Tools/gcc-arm-none-eabi-5_4-2016q2/bin/../lib/gcc/arm-none-eabi/5.4.1/../../../../arm-none-eabi/lib/armv7e-m/fpu/libg.a(lib_a-fclose.o)
 .text          0x00000000        0x0 /home/kedou/Project/OpenRE/Tools/gcc-arm-none-eabi-5_4-2016q2/bin/../lib/gcc/arm-none-eabi/5.4.1/../../../../arm-none-eabi/lib/armv7e-m/fpu/libg.a(lib_a-fputwc.o)
 .data          0x00000000        0x0 /home/kedou/Project/OpenRE/Tools/gcc-arm-none-eabi-5_4-2016q2/bin/../lib/gcc/arm-none-eabi/5.4.1/../../../../arm-none-eabi/lib/armv7e-m/fpu/libg.a(lib_a-fputwc.o)
 .bss           0x00000000        0x0 /home/kedou/Project/OpenRE/Tools/gcc-arm-none-eabi-5_4-2016q2/bin/../lib/gcc/arm-none-eabi/5.4.1/../../../../arm-none-eabi/lib/armv7e-m/fpu/libg.a(lib_a-fputwc.o)
 .text.fputwc   0x00000000       0x40 /home/kedou/Project/OpenRE/Tools/gcc-arm-none-eabi-5_4-2016q2/bin/../lib/gcc/arm-none-eabi/5.4.1/../../../../arm-none-eabi/lib/armv7e-m/fpu/libg.a(lib_a-fputwc.o)
 .text          0x00000000        0x0 /home/kedou/Project/OpenRE/Tools/gcc-arm-none-eabi-5_4-2016q2/bin/../lib/gcc/arm-none-eabi/5.4.1/../../../../arm-none-eabi/lib/armv7e-m/fpu/libg.a(lib_a-fstatr.o)
 .data          0x00000000        0x0 /home/kedou/Project/OpenRE/Tools/gcc-arm-none-eabi-5_4-2016q2/bin/../lib/gcc/arm-none-eabi/5.4.1/../../../../arm-none-eabi/lib/armv7e-m/fpu/libg.a(lib_a-fstatr.o)
 .bss           0x00000000        0x0 /home/kedou/Project/OpenRE/Tools/gcc-arm-none-eabi-5_4-2016q2/bin/../lib/gcc/arm-none-eabi/5.4.1/../../../../arm-none-eabi/lib/armv7e-m/fpu/libg.a(lib_a-fstatr.o)
 .text          0x00000000        0x0 /home/kedou/Project/OpenRE/Tools/gcc-arm-none-eabi-5_4-2016q2/bin/../lib/gcc/arm-none-eabi/5.4.1/../../../../arm-none-eabi/lib/armv7e-m/fpu/libg.a(lib_a-isattyr.o)
 .data          0x00000000        0x0 /home/kedou/Project/OpenRE/Tools/gcc-arm-none-eabi-5_4-2016q2/bin/../lib/gcc/arm-none-eabi/5.4.1/../../../../arm-none-eabi/lib/armv7e-m/fpu/libg.a(lib_a-isattyr.o)
 .bss           0x00000000        0x0 /home/kedou/Project/OpenRE/Tools/gcc-arm-none-eabi-5_4-2016q2/bin/../lib/gcc/arm-none-eabi/5.4.1/../../../../arm-none-eabi/lib/armv7e-m/fpu/libg.a(lib_a-isattyr.o)
 .text          0x00000000        0x0 /home/kedou/Project/OpenRE/Tools/gcc-arm-none-eabi-5_4-2016q2/bin/../lib/gcc/arm-none-eabi/5.4.1/../../../../arm-none-eabi/lib/armv7e-m/fpu/libg.a(lib_a-lseekr.o)
 .data          0x00000000        0x0 /home/kedou/Project/OpenRE/Tools/gcc-arm-none-eabi-5_4-2016q2/bin/../lib/gcc/arm-none-eabi/5.4.1/../../../../arm-none-eabi/lib/armv7e-m/fpu/libg.a(lib_a-lseekr.o)
 .bss           0x00000000        0x0 /home/kedou/Project/OpenRE/Tools/gcc-arm-none-eabi-5_4-2016q2/bin/../lib/gcc/arm-none-eabi/5.4.1/../../../../arm-none-eabi/lib/armv7e-m/fpu/libg.a(lib_a-lseekr.o)
 .text          0x00000000        0x0 /home/kedou/Project/OpenRE/Tools/gcc-arm-none-eabi-5_4-2016q2/bin/../lib/gcc/arm-none-eabi/5.4.1/../../../../arm-none-eabi/lib/armv7e-m/fpu/libg.a(lib_a-readr.o)
 .data          0x00000000        0x0 /home/kedou/Project/OpenRE/Tools/gcc-arm-none-eabi-5_4-2016q2/bin/../lib/gcc/arm-none-eabi/5.4.1/../../../../arm-none-eabi/lib/armv7e-m/fpu/libg.a(lib_a-readr.o)
 .bss           0x00000000        0x0 /home/kedou/Project/OpenRE/Tools/gcc-arm-none-eabi-5_4-2016q2/bin/../lib/gcc/arm-none-eabi/5.4.1/../../../../arm-none-eabi/lib/armv7e-m/fpu/libg.a(lib_a-readr.o)
 .text          0x00000000        0x0 /home/kedou/Project/OpenRE/Tools/gcc-arm-none-eabi-5_4-2016q2/bin/../lib/gcc/arm-none-eabi/5.4.1/../../../../arm-none-eabi/lib/armv7e-m/fpu/libg.a(lib_a-wbuf.o)
 .data          0x00000000        0x0 /home/kedou/Project/OpenRE/Tools/gcc-arm-none-eabi-5_4-2016q2/bin/../lib/gcc/arm-none-eabi/5.4.1/../../../../arm-none-eabi/lib/armv7e-m/fpu/libg.a(lib_a-wbuf.o)
 .bss           0x00000000        0x0 /home/kedou/Project/OpenRE/Tools/gcc-arm-none-eabi-5_4-2016q2/bin/../lib/gcc/arm-none-eabi/5.4.1/../../../../arm-none-eabi/lib/armv7e-m/fpu/libg.a(lib_a-wbuf.o)
 .text.__swbuf  0x00000000       0x10 /home/kedou/Project/OpenRE/Tools/gcc-arm-none-eabi-5_4-2016q2/bin/../lib/gcc/arm-none-eabi/5.4.1/../../../../arm-none-eabi/lib/armv7e-m/fpu/libg.a(lib_a-wbuf.o)
 .text          0x00000000        0x0 /home/kedou/Project/OpenRE/Tools/gcc-arm-none-eabi-5_4-2016q2/bin/../lib/gcc/arm-none-eabi/5.4.1/../../../../arm-none-eabi/lib/armv7e-m/fpu/libg.a(lib_a-wcrtomb.o)
 .data          0x00000000        0x0 /home/kedou/Project/OpenRE/Tools/gcc-arm-none-eabi-5_4-2016q2/bin/../lib/gcc/arm-none-eabi/5.4.1/../../../../arm-none-eabi/lib/armv7e-m/fpu/libg.a(lib_a-wcrtomb.o)
 .bss           0x00000000        0x0 /home/kedou/Project/OpenRE/Tools/gcc-arm-none-eabi-5_4-2016q2/bin/../lib/gcc/arm-none-eabi/5.4.1/../../../../arm-none-eabi/lib/armv7e-m/fpu/libg.a(lib_a-wcrtomb.o)
 .text.wcrtomb  0x00000000       0x58 /home/kedou/Project/OpenRE/Tools/gcc-arm-none-eabi-5_4-2016q2/bin/../lib/gcc/arm-none-eabi/5.4.1/../../../../arm-none-eabi/lib/armv7e-m/fpu/libg.a(lib_a-wcrtomb.o)
 .text          0x00000000        0x0 /home/kedou/Project/OpenRE/Tools/gcc-arm-none-eabi-5_4-2016q2/bin/../lib/gcc/arm-none-eabi/5.4.1/../../../../arm-none-eabi/lib/armv7e-m/fpu/libg.a(lib_a-wctomb_r.o)
 .data          0x00000000        0x0 /home/kedou/Project/OpenRE/Tools/gcc-arm-none-eabi-5_4-2016q2/bin/../lib/gcc/arm-none-eabi/5.4.1/../../../../arm-none-eabi/lib/armv7e-m/fpu/libg.a(lib_a-wctomb_r.o)
 .bss           0x00000000        0x0 /home/kedou/Project/OpenRE/Tools/gcc-arm-none-eabi-5_4-2016q2/bin/../lib/gcc/arm-none-eabi/5.4.1/../../../../arm-none-eabi/lib/armv7e-m/fpu/libg.a(lib_a-wctomb_r.o)
 .text._wctomb_r
                0x00000000       0x30 /home/kedou/Project/OpenRE/Tools/gcc-arm-none-eabi-5_4-2016q2/bin/../lib/gcc/arm-none-eabi/5.4.1/../../../../arm-none-eabi/lib/armv7e-m/fpu/libg.a(lib_a-wctomb_r.o)
 .data          0x00000000        0x0 /home/kedou/Project/OpenRE/Tools/gcc-arm-none-eabi-5_4-2016q2/bin/../lib/gcc/arm-none-eabi/5.4.1/armv7e-m/fpu/libgcc.a(_arm_addsubdf3.o)
 .bss           0x00000000        0x0 /home/kedou/Project/OpenRE/Tools/gcc-arm-none-eabi-5_4-2016q2/bin/../lib/gcc/arm-none-eabi/5.4.1/armv7e-m/fpu/libgcc.a(_arm_addsubdf3.o)
 .data          0x00000000        0x0 /home/kedou/Project/OpenRE/Tools/gcc-arm-none-eabi-5_4-2016q2/bin/../lib/gcc/arm-none-eabi/5.4.1/armv7e-m/fpu/libgcc.a(_arm_muldivdf3.o)
 .bss           0x00000000        0x0 /home/kedou/Project/OpenRE/Tools/gcc-arm-none-eabi-5_4-2016q2/bin/../lib/gcc/arm-none-eabi/5.4.1/armv7e-m/fpu/libgcc.a(_arm_muldivdf3.o)
 .data          0x00000000        0x0 /home/kedou/Project/OpenRE/Tools/gcc-arm-none-eabi-5_4-2016q2/bin/../lib/gcc/arm-none-eabi/5.4.1/armv7e-m/fpu/libgcc.a(_arm_cmpdf2.o)
 .bss           0x00000000        0x0 /home/kedou/Project/OpenRE/Tools/gcc-arm-none-eabi-5_4-2016q2/bin/../lib/gcc/arm-none-eabi/5.4.1/armv7e-m/fpu/libgcc.a(_arm_cmpdf2.o)
 .data          0x00000000        0x0 /home/kedou/Project/OpenRE/Tools/gcc-arm-none-eabi-5_4-2016q2/bin/../lib/gcc/arm-none-eabi/5.4.1/armv7e-m/fpu/libgcc.a(_arm_unorddf2.o)
 .bss           0x00000000        0x0 /home/kedou/Project/OpenRE/Tools/gcc-arm-none-eabi-5_4-2016q2/bin/../lib/gcc/arm-none-eabi/5.4.1/armv7e-m/fpu/libgcc.a(_arm_unorddf2.o)
 .data          0x00000000        0x0 /home/kedou/Project/OpenRE/Tools/gcc-arm-none-eabi-5_4-2016q2/bin/../lib/gcc/arm-none-eabi/5.4.1/armv7e-m/fpu/libgcc.a(_arm_fixdfsi.o)
 .bss           0x00000000        0x0 /home/kedou/Project/OpenRE/Tools/gcc-arm-none-eabi-5_4-2016q2/bin/../lib/gcc/arm-none-eabi/5.4.1/armv7e-m/fpu/libgcc.a(_arm_fixdfsi.o)
 .data          0x00000000        0x0 /home/kedou/Project/OpenRE/Tools/gcc-arm-none-eabi-5_4-2016q2/bin/../lib/gcc/arm-none-eabi/5.4.1/armv7e-m/fpu/libgcc.a(_aeabi_uldivmod.o)
 .bss           0x00000000        0x0 /home/kedou/Project/OpenRE/Tools/gcc-arm-none-eabi-5_4-2016q2/bin/../lib/gcc/arm-none-eabi/5.4.1/armv7e-m/fpu/libgcc.a(_aeabi_uldivmod.o)
 .data          0x00000000        0x0 /home/kedou/Project/OpenRE/Tools/gcc-arm-none-eabi-5_4-2016q2/bin/../lib/gcc/arm-none-eabi/5.4.1/armv7e-m/fpu/libgcc.a(_udivmoddi4.o)
 .bss           0x00000000        0x0 /home/kedou/Project/OpenRE/Tools/gcc-arm-none-eabi-5_4-2016q2/bin/../lib/gcc/arm-none-eabi/5.4.1/armv7e-m/fpu/libgcc.a(_udivmoddi4.o)
 .ARM.extab     0x00000000        0x0 /home/kedou/Project/OpenRE/Tools/gcc-arm-none-eabi-5_4-2016q2/bin/../lib/gcc/arm-none-eabi/5.4.1/armv7e-m/fpu/libgcc.a(_udivmoddi4.o)
 .data          0x00000000        0x0 /home/kedou/Project/OpenRE/Tools/gcc-arm-none-eabi-5_4-2016q2/bin/../lib/gcc/arm-none-eabi/5.4.1/armv7e-m/fpu/libgcc.a(_dvmd_tls.o)
 .bss           0x00000000        0x0 /home/kedou/Project/OpenRE/Tools/gcc-arm-none-eabi-5_4-2016q2/bin/../lib/gcc/arm-none-eabi/5.4.1/armv7e-m/fpu/libgcc.a(_dvmd_tls.o)

Memory Configuration

Name             Origin             Length             Attributes
FLASH            0x08000000         0x00100000         xr
RAM              0x20000000         0x00020000         xrw
CCMRAM           0x10000000         0x00010000         xrw
MEMORY_B1        0x60000000         0x00000000         xr
*default*        0x00000000         0xffffffff

Linker script and memory map

LOAD ../../../../1_Processor/STM32F4/STM32F4-Discovery_FW_V1.1.0/Libraries/CMSIS/ST/STM32F4xx/Source/Templates/gcc_ride7/startup_stm32f4xx.o
LOAD ../../../../1_Processor/STM32F4/STM32F4-Discovery_FW_V1.1.0/Libraries/CMSIS/ST/STM32F4xx/Source/Templates/system_stm32f4xx.o
LOAD ../../../../1_Processor/STM32F4/STM32F4-Discovery_FW_V1.1.0/Libraries/STM32F4xx_StdPeriph_Driver/src/misc.o
LOAD ../../../../1_Processor/STM32F4/STM32F4-Discovery_FW_V1.1.0/Libraries/STM32F4xx_StdPeriph_Driver/src/stm32f4xx_adc.o
LOAD ../../../../1_Processor/STM32F4/STM32F4-Discovery_FW_V1.1.0/Libraries/STM32F4xx_StdPeriph_Driver/src/stm32f4xx_can.o
LOAD ../../../../1_Processor/STM32F4/STM32F4-Discovery_FW_V1.1.0/Libraries/STM32F4xx_StdPeriph_Driver/src/stm32f4xx_crc.o
LOAD ../../../../1_Processor/STM32F4/STM32F4-Discovery_FW_V1.1.0/Libraries/STM32F4xx_StdPeriph_Driver/src/stm32f4xx_cryp_aes.o
LOAD ../../../../1_Processor/STM32F4/STM32F4-Discovery_FW_V1.1.0/Libraries/STM32F4xx_StdPeriph_Driver/src/stm32f4xx_cryp.o
LOAD ../../../../1_Processor/STM32F4/STM32F4-Discovery_FW_V1.1.0/Libraries/STM32F4xx_StdPeriph_Driver/src/stm32f4xx_cryp_des.o
LOAD ../../../../1_Processor/STM32F4/STM32F4-Discovery_FW_V1.1.0/Libraries/STM32F4xx_StdPeriph_Driver/src/stm32f4xx_cryp_tdes.o
LOAD ../../../../1_Processor/STM32F4/STM32F4-Discovery_FW_V1.1.0/Libraries/STM32F4xx_StdPeriph_Driver/src/stm32f4xx_dac.o
LOAD ../../../../1_Processor/STM32F4/STM32F4-Discovery_FW_V1.1.0/Libraries/STM32F4xx_StdPeriph_Driver/src/stm32f4xx_dbgmcu.o
LOAD ../../../../1_Processor/STM32F4/STM32F4-Discovery_FW_V1.1.0/Libraries/STM32F4xx_StdPeriph_Driver/src/stm32f4xx_dcmi.o
LOAD ../../../../1_Processor/STM32F4/STM32F4-Discovery_FW_V1.1.0/Libraries/STM32F4xx_StdPeriph_Driver/src/stm32f4xx_dma.o
LOAD ../../../../1_Processor/STM32F4/STM32F4-Discovery_FW_V1.1.0/Libraries/STM32F4xx_StdPeriph_Driver/src/stm32f4xx_exti.o
LOAD ../../../../1_Processor/STM32F4/STM32F4-Discovery_FW_V1.1.0/Libraries/STM32F4xx_StdPeriph_Driver/src/stm32f4xx_flash.o
LOAD ../../../../1_Processor/STM32F4/STM32F4-Discovery_FW_V1.1.0/Libraries/STM32F4xx_StdPeriph_Driver/src/stm32f4xx_fsmc.o
LOAD ../../../../1_Processor/STM32F4/STM32F4-Discovery_FW_V1.1.0/Libraries/STM32F4xx_StdPeriph_Driver/src/stm32f4xx_gpio.o
LOAD ../../../../1_Processor/STM32F4/STM32F4-Discovery_FW_V1.1.0/Libraries/STM32F4xx_StdPeriph_Driver/src/stm32f4xx_hash.o
LOAD ../../../../1_Processor/STM32F4/STM32F4-Discovery_FW_V1.1.0/Libraries/STM32F4xx_StdPeriph_Driver/src/stm32f4xx_hash_md5.o
LOAD ../../../../1_Processor/STM32F4/STM32F4-Discovery_FW_V1.1.0/Libraries/STM32F4xx_StdPeriph_Driver/src/stm32f4xx_hash_sha1.o
LOAD ../../../../1_Processor/STM32F4/STM32F4-Discovery_FW_V1.1.0/Libraries/STM32F4xx_StdPeriph_Driver/src/stm32f4xx_i2c.o
LOAD ../../../../1_Processor/STM32F4/STM32F4-Discovery_FW_V1.1.0/Libraries/STM32F4xx_StdPeriph_Driver/src/stm32f4xx_iwdg.o
LOAD ../../../../1_Processor/STM32F4/STM32F4-Discovery_FW_V1.1.0/Libraries/STM32F4xx_StdPeriph_Driver/src/stm32f4xx_pwr.o
LOAD ../../../../1_Processor/STM32F4/STM32F4-Discovery_FW_V1.1.0/Libraries/STM32F4xx_StdPeriph_Driver/src/stm32f4xx_rcc.o
LOAD ../../../../1_Processor/STM32F4/STM32F4-Discovery_FW_V1.1.0/Libraries/STM32F4xx_StdPeriph_Driver/src/stm32f4xx_rng.o
LOAD ../../../../1_Processor/STM32F4/STM32F4-Discovery_FW_V1.1.0/Libraries/STM32F4xx_StdPeriph_Driver/src/stm32f4xx_rtc.o
LOAD ../../../../1_Processor/STM32F4/STM32F4-Discovery_FW_V1.1.0/Libraries/STM32F4xx_StdPeriph_Driver/src/stm32f4xx_sdio.o
LOAD ../../../../1_Processor/STM32F4/STM32F4-Discovery_FW_V1.1.0/Libraries/STM32F4xx_StdPeriph_Driver/src/stm32f4xx_spi.o
LOAD ../../../../1_Processor/STM32F4/STM32F4-Discovery_FW_V1.1.0/Libraries/STM32F4xx_StdPeriph_Driver/src/stm32f4xx_syscfg.o
LOAD ../../../../1_Processor/STM32F4/STM32F4-Discovery_FW_V1.1.0/Libraries/STM32F4xx_StdPeriph_Driver/src/stm32f4xx_tim.o
LOAD ../../../../1_Processor/STM32F4/STM32F4-Discovery_FW_V1.1.0/Libraries/STM32F4xx_StdPeriph_Driver/src/stm32f4xx_usart.o
LOAD ../../../../1_Processor/STM32F4/STM32F4-Discovery_FW_V1.1.0/Libraries/STM32F4xx_StdPeriph_Driver/src/stm32f4xx_wwdg.o
LOAD ../../../../1_Processor/STM32F4/BSPLIB/adc_dac.o
LOAD ../../../../1_Processor/STM32F4/BSPLIB/can.o
LOAD ../../../../1_Processor/STM32F4/BSPLIB/delay.o
LOAD ../../../../1_Processor/STM32F4/BSPLIB/encoder.o
LOAD ../../../../1_Processor/STM32F4/BSPLIB/flash.o
LOAD ../../../../1_Processor/STM32F4/BSPLIB/i2c.o
LOAD ../../../../1_Processor/STM32F4/BSPLIB/nvic.o
LOAD ../../../../1_Processor/STM32F4/BSPLIB/pwm_in.o
LOAD ../../../../1_Processor/STM32F4/BSPLIB/pwm_out.o
LOAD ../../../../1_Processor/STM32F4/BSPLIB/rtc.o
LOAD ../../../../1_Processor/STM32F4/BSPLIB/spi.o
LOAD ../../../../1_Processor/STM32F4/BSPLIB/timer.o
LOAD ../../../../1_Processor/STM32F4/BSPLIB/usart.o
LOAD ../../../../1_Processor/STM32F4/BSPLIB/wdg_wkup.o
LOAD ../src/main.o
LOAD ../src/stm32f4xx_it.o
LOAD ../../../../1_Processor/BoardAbstract/control_unit_v1.o
LOAD ../../../../1_Processor/BoardAbstract/control_unit_v2.o
LOAD /home/kedou/Project/OpenRE/Tools/gcc-arm-none-eabi-5_4-2016q2/bin/../lib/gcc/arm-none-eabi/5.4.1/../../../../arm-none-eabi/lib/armv7e-m/fpu/libm.a
START GROUP
LOAD /home/kedou/Project/OpenRE/Tools/gcc-arm-none-eabi-5_4-2016q2/bin/../lib/gcc/arm-none-eabi/5.4.1/armv7e-m/fpu/libgcc.a
LOAD /home/kedou/Project/OpenRE/Tools/gcc-arm-none-eabi-5_4-2016q2/bin/../lib/gcc/arm-none-eabi/5.4.1/../../../../arm-none-eabi/lib/armv7e-m/fpu/libg.a
LOAD /home/kedou/Project/OpenRE/Tools/gcc-arm-none-eabi-5_4-2016q2/bin/../lib/gcc/arm-none-eabi/5.4.1/../../../../arm-none-eabi/lib/armv7e-m/fpu/libc.a
END GROUP
                0x20020000                _estack = 0x20020000
                0x00000000                _Min_Heap_Size = 0x0
                0x00000400                _Min_Stack_Size = 0x400

.isr_vector     0x08000000      0x188
                0x08000000                . = ALIGN (0x4)
 *(.isr_vector)
 .isr_vector    0x08000000      0x188 ../../../../1_Processor/STM32F4/STM32F4-Discovery_FW_V1.1.0/Libraries/CMSIS/ST/STM32F4xx/Source/Templates/gcc_ride7/startup_stm32f4xx.o
                0x08000000                g_pfnVectors
                0x08000188                . = ALIGN (0x4)

.text           0x080001c0     0xb1a8
                0x080001c0                . = ALIGN (0x4)
 *(.text)
 .text          0x080001c0      0x168 ../../../../1_Processor/STM32F4/STM32F4-Discovery_FW_V1.1.0/Libraries/CMSIS/ST/STM32F4xx/Source/Templates/system_stm32f4xx.o
                0x080001c0                SystemInit
                0x080002b8                SystemCoreClockUpdate
 .text          0x08000328       0xc8 ../../../../1_Processor/STM32F4/STM32F4-Discovery_FW_V1.1.0/Libraries/STM32F4xx_StdPeriph_Driver/src/misc.o
                0x08000328                NVIC_PriorityGroupConfig
                0x0800033c                NVIC_Init
                0x080003ac                NVIC_SetVectorTable
                0x080003c0                NVIC_SystemLPConfig
                0x080003d8                SysTick_CLKSourceConfig
 .text          0x080003f0      0x374 ../../../../1_Processor/STM32F4/STM32F4-Discovery_FW_V1.1.0/Libraries/STM32F4xx_StdPeriph_Driver/src/stm32f4xx_adc.o
                0x080003f0                ADC_DeInit
                0x0800040a                ADC_Init
                0x08000454                ADC_StructInit
                0x08000468                ADC_CommonInit
                0x08000490                ADC_CommonStructInit
                0x0800049c                ADC_Cmd
                0x080004ae                ADC_AnalogWatchdogCmd
                0x080004be                ADC_AnalogWatchdogThresholdsConfig
                0x080004c4                ADC_AnalogWatchdogSingleChannelConfig
                0x080004d0                ADC_TempSensorVrefintCmd
                0x080004e8                ADC_VBATCmd
                0x08000500                ADC_RegularChannelConfig
                0x0800058e                ADC_SoftwareStartConv
                0x08000598                ADC_EOCOnEachRegularChannelCmd
                0x080005aa                ADC_ContinuousModeCmd
                0x080005bc                ADC_DiscModeChannelCountConfig
                0x080005cc                ADC_DiscModeCmd
                0x080005de                ADC_GetConversionValue
                0x080005e4                ADC_GetMultiModeConversionValue
                0x080005f0                ADC_DMACmd
                0x08000602                ADC_DMARequestAfterLastTransferCmd
                0x08000614                ADC_MultiModeDMARequestAfterLastTransferCmd
                0x0800062c                ADC_InjectedChannelConfig
                0x08000684                ADC_InjectedSequencerLengthConfig
                0x08000694                ADC_SetInjectedOffset
                0x080006aa                ADC_ExternalTrigInjectedConvConfig
                0x080006b6                ADC_ExternalTrigInjectedConvEdgeConfig
                0x080006c2                ADC_SoftwareStartInjectedConv
                0x080006cc                ADC_GetSoftwareStartInjectedConvCmdStatus
                0x080006d4                ADC_GetSoftwareStartConvStatus
                0x080006d8                ADC_AutoInjectedConvCmd
                0x080006ea                ADC_InjectedDiscModeCmd
                0x080006fc                ADC_GetInjectedConversionValue
                0x08000716                ADC_ITConfig
                0x0800072e                ADC_GetFlagStatus
                0x0800073a                ADC_ClearFlag
                0x08000740                ADC_GetITStatus
                0x0800075c                ADC_ClearITPendingBit
 .text          0x08000764      0x1b0 ../../../../1_Processor/STM32F4/STM32F4-Discovery_FW_V1.1.0/Libraries/STM32F4xx_StdPeriph_Driver/src/stm32f4xx_dac.o
                0x08000764                DAC_DeInit
                0x0800077e                DAC_Init
                0x080007ac                DAC_StructInit
                0x080007b8                DAC_Cmd
                0x080007d8                DAC_SoftwareTriggerCmd
                0x080007f8                DAC_DualSoftwareTriggerCmd
                0x08000810                DAC_SetChannel1Data
                0x08000830                DAC_SetChannel2Data
                0x08000850                DAC_SetDualChannelData
                0x08000868                DAC_GetDataOutputValue
                0x0800088c                DAC_DMACmd
                0x080008ac                DAC_ITConfig
                0x080008c8                DAC_WaveGenerationCmd
                0x080008cc                DAC_GetFlagStatus
                0x080008e0                DAC_ClearFlag
                0x080008ec                DAC_GetITStatus
                0x08000908                DAC_ClearITPendingBit
 .text          0x08000914      0x304 ../../../../1_Processor/STM32F4/STM32F4-Discovery_FW_V1.1.0/Libraries/STM32F4xx_StdPeriph_Driver/src/stm32f4xx_dma.o
                0x08000914                DMA_DeInit
                0x08000a20                DMA_Init
                0x08000a74                DMA_StructInit
                0x08000a96                DMA_Cmd
                0x08000aa8                DMA_PeriphIncOffsetSizeConfig
                0x08000aba                DMA_FlowControllerConfig
                0x08000acc                DMA_SetCurrDataCounter
                0x08000ad0                DMA_GetCurrDataCounter
                0x08000ad6                DMA_DoubleBufferModeConfig
                0x08000aea                DMA_DoubleBufferModeCmd
                0x08000afc                DMA_MemoryTargetConfig
                0x08000b06                DMA_GetCurrentMemoryTarget
                0x08000b0e                DMA_GetCmdStatus
                0x08000b16                DMA_GetFIFOStatus
                0x08000b1e                DMA_GetFlagStatus
                0x08000b54                DMA_ITConfig
                0x08000b92                DMA_GetITStatus
                0x08000be4                DMA_ClearITPendingBit
                0x08000c14                DMA_ClearFlag
 .text          0x08000c18       0xf4 ../../../../1_Processor/STM32F4/STM32F4-Discovery_FW_V1.1.0/Libraries/STM32F4xx_StdPeriph_Driver/src/stm32f4xx_exti.o
                0x08000c18                EXTI_DeInit
                0x08000c34                EXTI_Init
                0x08000ca8                EXTI_StructInit
                0x08000cb6                EXTI_GenerateSWInterrupt
                0x08000cc4                EXTI_GetFlagStatus
                0x08000cd8                EXTI_ClearFlag
                0x08000ce4                EXTI_GetITStatus
                0x08000d00                EXTI_ClearITPendingBit
 .text          0x08000d0c      0x208 ../../../../1_Processor/STM32F4/STM32F4-Discovery_FW_V1.1.0/Libraries/STM32F4xx_StdPeriph_Driver/src/stm32f4xx_gpio.o
                0x08000d0c                GPIO_DeInit
                0x08000df4                GPIO_Init
                0x08000e78                GPIO_StructInit
                0x08000e8a                GPIO_PinLockConfig
                0x08000eae                GPIO_ReadInputDataBit
                0x08000eba                GPIO_ReadInputData
                0x08000ec0                GPIO_ReadOutputDataBit
                0x08000ecc                GPIO_ReadOutputData
                0x08000ed2                GPIO_SetBits
                0x08000ed6                GPIO_ResetBits
                0x08000eda                GPIO_WriteBit
                0x08000ee4                GPIO_Write
                0x08000ee8                GPIO_ToggleBits
                0x08000ef0                GPIO_PinAFConfig
 .text          0x08000f14      0x100 ../../../../1_Processor/STM32F4/STM32F4-Discovery_FW_V1.1.0/Libraries/STM32F4xx_StdPeriph_Driver/src/stm32f4xx_pwr.o
                0x08000f14                PWR_DeInit
                0x08000f2e                PWR_BackupAccessCmd
                0x08000f38                PWR_PVDLevelConfig
                0x08000f4c                PWR_PVDCmd
                0x08000f58                PWR_WakeUpPinCmd
                0x08000f64                PWR_BackupRegulatorCmd
                0x08000f70                PWR_MainRegulatorModeConfig
                0x08000f88                PWR_FlashPowerDownCmd
                0x08000f94                PWR_EnterSTOPMode
                0x08000fc8                PWR_EnterSTANDBYMode
                0x08000ff0                PWR_GetFlagStatus
                0x08001004                PWR_ClearFlag
 .text          0x08001014      0x454 ../../../../1_Processor/STM32F4/STM32F4-Discovery_FW_V1.1.0/Libraries/STM32F4xx_StdPeriph_Driver/src/stm32f4xx_rcc.o
                0x08001014                RCC_DeInit
                0x08001048                RCC_HSEConfig
                0x08001058                RCC_AdjustHSICalibrationValue
                0x0800106c                RCC_HSICmd
                0x08001078                RCC_LSEConfig
                0x08001098                RCC_LSICmd
                0x080010a4                RCC_PLLConfig
                0x080010c4                RCC_PLLCmd
                0x080010d0                RCC_PLLI2SConfig
                0x080010e4                RCC_PLLI2SCmd
                0x080010f0                RCC_ClockSecuritySystemCmd
                0x080010fc                RCC_MCO1Config
                0x08001110                RCC_MCO2Config
                0x08001124                RCC_SYSCLKConfig
                0x08001138                RCC_GetSYSCLKSource
                0x08001148                RCC_HCLKConfig
                0x0800115c                RCC_PCLK1Config
                0x08001170                RCC_PCLK2Config
                0x08001184                RCC_GetClocksFreq
                0x0800120c                RCC_RTCCLKConfig
                0x0800123c                RCC_RTCCLKCmd
                0x08001248                RCC_BackupResetCmd
                0x08001254                RCC_I2SCLKConfig
                0x08001260                RCC_AHB1PeriphClockCmd
                0x08001278                RCC_AHB2PeriphClockCmd
                0x08001290                RCC_AHB3PeriphClockCmd
                0x080012a8                RCC_APB1PeriphClockCmd
                0x080012c0                RCC_APB2PeriphClockCmd
                0x080012d8                RCC_AHB1PeriphResetCmd
                0x080012f0                RCC_AHB2PeriphResetCmd
                0x08001308                RCC_AHB3PeriphResetCmd
                0x08001320                RCC_APB1PeriphResetCmd
                0x08001338                RCC_APB2PeriphResetCmd
                0x08001350                RCC_AHB1PeriphClockLPModeCmd
                0x08001368                RCC_AHB2PeriphClockLPModeCmd
                0x08001380                RCC_AHB3PeriphClockLPModeCmd
                0x08001398                RCC_APB1PeriphClockLPModeCmd
                0x080013b0                RCC_APB2PeriphClockLPModeCmd
                0x080013c8                RCC_ITConfig
                0x080013e0                RCC_GetFlagStatus
                0x08001408                RCC_WaitForHSEStartUp
                0x08001438                RCC_ClearFlag
                0x08001448                RCC_GetITStatus
                0x0800145c                RCC_ClearITPendingBit
 .text          0x08001468      0xa5c ../../../../1_Processor/STM32F4/STM32F4-Discovery_FW_V1.1.0/Libraries/STM32F4xx_StdPeriph_Driver/src/stm32f4xx_rtc.o
                0x08001494                RTC_StructInit
                0x080014a0                RTC_WriteProtectionCmd
                0x080014b8                RTC_EnterInitMode
                0x080014f8                RTC_ExitInitMode
                0x08001508                RTC_Init
                0x0800154c                RTC_WaitForSynchro
                0x08001590                RTC_DeInit
                0x08001610                RTC_RefClockCmd
                0x08001648                RTC_BypassShadowCmd
                0x0800166c                RTC_SetTime
                0x080016f8                RTC_TimeStructInit
                0x08001704                RTC_GetTime
                0x0800174c                RTC_GetSubSecond
                0x08001758                RTC_SetDate
                0x080017d8                RTC_DateStructInit
                0x080017e6                RTC_GetDate
                0x0800182c                RTC_SetAlarm
                0x080018d4                RTC_AlarmStructInit
                0x080018e8                RTC_GetAlarm
                0x0800194c                RTC_AlarmCmd
                0x080019a8                RTC_AlarmSubSecondConfig
                0x080019cc                RTC_GetAlarmSubSecond
                0x080019e4                RTC_WakeUpClockConfig
                0x08001a08                RTC_SetWakeUpCounter
                0x08001a20                RTC_GetWakeUpCounter
                0x08001a2c                RTC_WakeUpCmd
                0x08001a80                RTC_DayLightSavingConfig
                0x08001aa4                RTC_GetStoreOperation
                0x08001ab4                RTC_OutputConfig
                0x08001ad8                RTC_CoarseCalibConfig
                0x08001b04                RTC_CoarseCalibCmd
                0x08001b3c                RTC_CalibOutputCmd
                0x08001b60                RTC_CalibOutputConfig
                0x08001b84                RTC_SmoothCalibConfig
                0x08001bc8                RTC_TimeStampCmd
                0x08001bf0                RTC_GetTimeStamp
                0x08001c70                RTC_GetTimeStampSubSecond
                0x08001c7c                RTC_TamperTriggerConfig
                0x08001c94                RTC_TamperCmd
                0x08001cac                RTC_TamperFilterConfig
                0x08001cc4                RTC_TamperSamplingFreqConfig
                0x08001cdc                RTC_TamperPinsPrechargeDuration
                0x08001cf4                RTC_TimeStampOnTamperDetectionCmd
                0x08001d0c                RTC_TamperPullUpCmd
                0x08001d24                RTC_WriteBackupRegister
                0x08001d44                RTC_ReadBackupRegister
                0x08001d64                RTC_TamperPinSelection
                0x08001d7c                RTC_TimeStampPinSelection
                0x08001d94                RTC_OutputTypeConfig
                0x08001dac                RTC_SynchroShiftConfig
                0x08001e00                RTC_ITConfig
                0x08001e40                RTC_GetFlagStatus
                0x08001e5c                RTC_ClearFlag
                0x08001e78                RTC_GetITStatus
                0x08001ea8                RTC_ClearITPendingBit
 .text          0x08001ec4       0x74 ../../../../1_Processor/STM32F4/STM32F4-Discovery_FW_V1.1.0/Libraries/STM32F4xx_StdPeriph_Driver/src/stm32f4xx_syscfg.o
                0x08001ec4                SYSCFG_DeInit
                0x08001ede                SYSCFG_MemoryRemapConfig
                0x08001ee8                SYSCFG_EXTILineConfig
                0x08001f12                SYSCFG_ETH_MediaInterfaceConfig
                0x08001f1c                SYSCFG_CompensationCellCmd
                0x08001f28                SYSCFG_GetCompensationCellStatus
 .text          0x08001f38      0xb04 ../../../../1_Processor/STM32F4/STM32F4-Discovery_FW_V1.1.0/Libraries/STM32F4xx_StdPeriph_Driver/src/stm32f4xx_tim.o
                0x08001fa4                TIM_DeInit
                0x08002110                TIM_TimeBaseInit
                0x0800218c                TIM_TimeBaseStructInit
                0x0800219e                TIM_PrescalerConfig
                0x080021a4                TIM_CounterModeConfig
                0x080021b4                TIM_SetCounter
                0x080021b8                TIM_SetAutoreload
                0x080021bc                TIM_GetCounter
                0x080021c0                TIM_GetPrescaler
                0x080021c6                TIM_UpdateDisableConfig
                0x080021de                TIM_UpdateRequestConfig
                0x080021f6                TIM_ARRPreloadConfig
                0x0800220e                TIM_SelectOnePulseMode
                0x08002224                TIM_SetClockDivision
                0x0800223a                TIM_Cmd
                0x08002252                TIM_OC1Init
                0x080022c4                TIM_OC2Init
                0x0800234c                TIM_OC3Init
                0x080023d0                TIM_OC4Init
                0x08002438                TIM_OCStructInit
                0x0800244c                TIM_SelectOCxM
                0x08002492                TIM_SetCompare1
                0x08002496                TIM_SetCompare2
                0x0800249a                TIM_SetCompare3
                0x0800249e                TIM_SetCompare4
                0x080024a2                TIM_ForcedOC1Config
                0x080024b2                TIM_ForcedOC2Config
                0x080024c6                TIM_ForcedOC3Config
                0x080024d6                TIM_ForcedOC4Config
                0x080024ea                TIM_OC1PreloadConfig
                0x080024fa                TIM_OC2PreloadConfig
                0x0800250e                TIM_OC3PreloadConfig
                0x0800251e                TIM_OC4PreloadConfig
                0x08002532                TIM_OC1FastConfig
                0x08002542                TIM_OC2FastConfig
                0x08002556                TIM_OC3FastConfig
                0x08002566                TIM_OC4FastConfig
                0x0800257a                TIM_ClearOC1Ref
                0x0800258a                TIM_ClearOC2Ref
                0x0800259a                TIM_ClearOC3Ref
                0x080025aa                TIM_ClearOC4Ref
                0x080025ba                TIM_OC1PolarityConfig
                0x080025ca                TIM_OC1NPolarityConfig
                0x080025da                TIM_OC2PolarityConfig
                0x080025ee                TIM_OC2NPolarityConfig
                0x08002602                TIM_OC3PolarityConfig
                0x08002616                TIM_OC3NPolarityConfig
                0x0800262a                TIM_OC4PolarityConfig
                0x0800263e                TIM_CCxCmd
                0x0800265a                TIM_CCxNCmd
                0x08002676                TIM_ICStructInit
                0x08002686                TIM_GetCapture1
                0x0800268a                TIM_GetCapture2
                0x0800268e                TIM_GetCapture3
                0x08002692                TIM_GetCapture4
                0x08002696                TIM_SetIC1Prescaler
                0x080026ac                TIM_SetIC2Prescaler
                0x080026c6                TIM_PWMIConfig
                0x08002726                TIM_SetIC3Prescaler
                0x0800273c                TIM_SetIC4Prescaler
                0x08002756                TIM_ICInit
                0x0800280a                TIM_BDTRConfig
                0x0800282c                TIM_BDTRStructInit
                0x0800283e                TIM_CtrlPWMOutputs
                0x0800285a                TIM_SelectCOM
                0x08002872                TIM_CCPreloadControl
                0x0800288a                TIM_GenerateEvent
                0x0800288e                TIM_GetFlagStatus
                0x0800289a                TIM_ClearFlag
                0x080028a2                TIM_GetITStatus
                0x080028b8                TIM_ClearITPendingBit
                0x080028c0                TIM_DMAConfig
                0x080028c8                TIM_DMACmd
                0x080028da                TIM_ITConfig
                0x080028de                TIM_SelectCCDMA
                0x080028f6                TIM_InternalClockConfig
                0x08002904                TIM_ITRxExternalClockConfig
                0x0800291e                TIM_TIxExternalClockConfig
                0x08002952                TIM_SelectInputTrigger
                0x08002962                TIM_SelectOutputTrigger
                0x08002978                TIM_SelectSlaveMode
                0x0800298e                TIM_SelectMasterSlaveMode
                0x080029a4                TIM_ETRConfig
                0x080029b8                TIM_ETRClockMode1Config
                0x080029d0                TIM_ETRClockMode2Config
                0x080029e2                TIM_EncoderInterfaceConfig
                0x08002a1e                TIM_SelectHallSensor
                0x08002a36                TIM_RemapConfig
 .text          0x08002a3c      0x3b8 ../../../../1_Processor/STM32F4/STM32F4-Discovery_FW_V1.1.0/Libraries/STM32F4xx_StdPeriph_Driver/src/stm32f4xx_usart.o
                0x08002a3c                USART_DeInit
                0x08002aec                USART_Init
                0x08002b9c                USART_StructInit
                0x08002bb2                USART_ClockInit
                0x08002bd2                USART_ClockStructInit
                0x08002bde                USART_Cmd
                0x08002bf6                USART_SetPrescaler
                0x08002c08                USART_OverSampling8Cmd
                0x08002c20                USART_OneBitMethodCmd
                0x08002c38                USART_SendData
                0x08002c40                USART_ReceiveData
                0x08002c48                USART_SetAddress
                0x08002c5e                USART_ReceiverWakeUpCmd
                0x08002c76                USART_WakeUpConfig
                0x08002c8c                USART_LINBreakDetectLengthConfig
                0x08002ca2                USART_LINCmd
                0x08002cba                USART_SendBreak
                0x08002cc6                USART_HalfDuplexCmd
                0x08002cde                USART_SetGuardTime
                0x08002cf0                USART_SmartCardCmd
                0x08002d08                USART_SmartCardNACKCmd
                0x08002d20                USART_IrDAConfig
                0x08002d36                USART_IrDACmd
                0x08002d4e                USART_DMACmd
                0x08002d60                USART_ITConfig
                0x08002d90                USART_GetFlagStatus
                0x08002d9c                USART_ClearFlag
                0x08002da4                USART_GetITStatus
                0x08002de4                USART_ClearITPendingBit
 .text          0x08002df4      0x480 ../../../../1_Processor/STM32F4/BSPLIB/adc_dac.o
                0x08002df4                HF_ADC_Moder_Init
                0x0800314c                HF_Get_ADC_Output
                0x08003184                HF_DAC_Init
                0x08003214                HF_DAC_Set_Vol
 .text          0x08003274      0x1c8 ../../../../1_Processor/STM32F4/BSPLIB/delay.o
                0x08003274                delay_init
                0x080032ac                delay_us
                0x080032dc                delay_ms
                0x0800330c                HF_System_Timer_Init
                0x08003380                TIM5_IRQHandler
                0x080033cc                HF_Get_System_Time
                0x080033f4                HF_Get_Dtime
 .text          0x0800343c      0x294 ../../../../1_Processor/STM32F4/BSPLIB/encoder.o
                0x0800343c                HF_Encoder_Init
                0x08003634                HF_Get_Encode_TIM2
                0x08003658                HF_Get_Encode_TIM3
                0x08003680                HF_Get_Encode_TIM4
                0x080036a8                HF_Get_Encode_TIM5
 .text          0x080036d0      0x4c4 ../../../../1_Processor/STM32F4/BSPLIB/i2c.o
                0x0800392e                HF_Hardware_I2C_Init
                0x08003930                HF_Hardware_I2C_Write_Byte
                0x08003932                HF_Hardware_I2C_Read_Byte
                0x08003936                HF_Hardware_I2C_Write_Buf
                0x0800393a                HF_Hardware_I2C_Read_Buf
                0x0800393e                HF_Simulat_I2C_Write_Byte
                0x08003984                HF_Simulat_I2C_Read_Byte
                0x080039ea                HF_Simulat_I2C_Write_Buf
                0x08003a66                HF_Simulat_I2C_Read_Buf
                0x08003af8                HF_Simulat_I2C_Init
 .text          0x08003b94      0x560 ../../../../1_Processor/STM32F4/BSPLIB/nvic.o
                0x08003b94                CAN1_RX0_NVIC_Configuration
                0x08003bc0                CAN1_RX1_NVIC_Configuration
                0x08003bec                CAN2_RX0_NVIC_Configuration
                0x08003c18                CAN2_RX1_NVIC_Configuration
                0x08003c44                USART1_NVIC_Configuration
                0x08003c6e                USART2_NVIC_Configuration
                0x08003c98                USART3_NVIC_Configuration
                0x08003cc2                UART4_NVIC_Configuration
                0x08003cee                UART5_NVIC_Configuration
                0x08003d1a                USART6_NVIC_Configuration
                0x08003d46                TIM1_NVIC_Configuration
                0x08003d74                TIM2_NVIC_Configuration
                0x08003da2                TIM3_NVIC_Configuration
                0x08003dd0                TIM4_NVIC_Configuration
                0x08003dfe                TIM5_NVIC_Configuration
                0x08003e2c                TIM6_NVIC_Configuration
                0x08003e58                TIM7_NVIC_Configuration
                0x08003e86                TIM8_NVIC_Configuration
                0x08003eb4                TIM9_NVIC_Configuration
                0x08003ee2                TIM10_NVIC_Configuration
                0x08003f10                TIM11_NVIC_Configuration
                0x08003f3e                TIM12_NVIC_Configuration
                0x08003f6c                TIM13_NVIC_Configuration
                0x08003f9a                TIM14_NVIC_Configuration
                0x08003fc8                EXTI0_NVIC_Configuration
                0x08003ff4                EXTI1_NVIC_Configuration
                0x08004020                EXTI2_NVIC_Configuration
                0x0800404c                EXTI3_NVIC_Configuration
                0x08004078                EXTI4_NVIC_Configuration
                0x080040a4                EXTI9_5_NVIC_Configuration
                0x080040d0                EXTI15_10_NVIC_Configuration
 .text          0x080040f4      0x2f4 ../../../../1_Processor/STM32F4/BSPLIB/pwm_in.o
                0x080040f4                HF_PWMIN_Init
                0x08004270                HF_Get_PWM_Value
                0x08004280                EXTI0_IRQHandler
                0x080042c8                EXTI1_IRQHandler
                0x08004310                EXTI2_IRQHandler
                0x08004358                EXTI3_IRQHandler
                0x080043a0                EXTI4_IRQHandler
 .text          0x080043e8      0x3bc ../../../../1_Processor/STM32F4/BSPLIB/pwm_out.o
                0x080043e8                HF_PWMOut_Init
                0x08004624                HF_PWM_Set_TIM1_CCR1
                0x08004644                HF_PWM_Set_TIM1_CCR2
                0x08004664                HF_PWM_Set_TIM1_CCR3
                0x08004684                HF_PWM_Set_TIM1_CCR4
                0x080046a4                HF_PWM_Set_TIM8_CCR1
                0x080046c4                HF_PWM_Set_TIM8_CCR2
                0x080046e4                HF_PWM_Set_TIM8_CCR3
                0x08004704                HF_PWM_Set_TIM8_CCR4
                0x08004724                HF_PWM_Set_TIM9_CCR1
                0x08004744                HF_PWM_Set_TIM9_CCR2
                0x08004764                HF_PWM_Set_TIM12_CCR1
                0x08004784                HF_PWM_Set_TIM12_CCR2
 .text          0x080047a4      0x30c ../../../../1_Processor/STM32F4/BSPLIB/rtc.o
                0x080047a4                RTC_Set_Time
                0x080047c4                RTC_Set_Date
                0x080047e4                RTC_Get_Time
                0x08004812                RTC_Get_Date
                0x08004840                HF_RTC_Init
                0x080048ce                RTC_Set_AlarmA
                0x0800496e                RTC_Set_WakeUp
                0x080049e6                RTC_Alarm_IRQHandler
                0x08004a08                RTC_WKUP_IRQHandler
                0x08004a2a                RTC_Get_Week
                0x08004a8c                HF_RTC_Time_Renew
 .text          0x08004ab0      0x19c ../../../../1_Processor/STM32F4/BSPLIB/timer.o
                0x08004ab0                HF_Timer_Init
 .text          0x08004c4c      0x574 ../../../../1_Processor/STM32F4/BSPLIB/usart.o
                0x08004c4c                HF_USART_Init
                0x08004f20                HF_USART_Put_Char
                0x08004f36                _close
                0x08004f3c                _execve
                0x08004f4c                _fork
                0x08004f5c                _fstat
                0x08004f66                _getpid
                0x08004f6a                _isatty
                0x08004f80                _kill
                0x08004f90                _link
                0x08004fa0                _lseek
                0x08004fa4                _read
                0x08004fe0                _stat
                0x08004fea                _times
                0x08004ff0                _unlink
                0x08005000                _wait
                0x08005010                _write
                0x08005068                _exit
                0x0800507c                _sbrk
                0x080050c4                HF_USART_printf
 .text          0x080051c0       0x3c ../src/main.o
                0x080051c0                constructorInit()
                0x080051e0                systemInit()
 .text          0x080051fc       0x64 ../src/stm32f4xx_it.o
                0x080051fc                USART1_IRQHandler
                0x08005214                TIM6_DAC_IRQHandler
 .text          0x08005260      0x814 ../../../../1_Processor/BoardAbstract/control_unit_v1.o
                0x08005260                Board::Board()
                0x08005260                Board::Board()
                0x08005294                Board::debugInterfaceInit()
                0x080052a4                Board::debugPutChar(unsigned char)
                0x080052c0                Board::getBatteryVoltage()
                0x08005304                Board::getCPUUsage()
                0x08005310                Board::getCPUTemperature()
                0x08005364                Board::boardBasicCall()
                0x08005434                Board::getCPUInfo()
                0x08005460                Board::ledInit()
                0x08005498                Board::setLedState(unsigned char, unsigned char)
                0x080054c8                Board::keyInit()
                0x080054ca                Board::keyStateRenew()
                0x080054cc                Board::beepInit()
                0x08005504                Board::boardBasicInit()
                0x08005560                Board::setBeepState(unsigned char)
                0x08005590                Board::motorInterfaceInit(unsigned char, float)
                0x0800567c                Board::motorEnable(unsigned char)
                0x080056a4                Board::motorDisable(unsigned char)
                0x080056cc                Board::getMotorEncoderCNT(unsigned char)
                0x080056f0                Board::getMotorCurrent(unsigned char)
                0x08005714                Board::motorSetPWM(unsigned char, int)
                0x08005786                Board::axServoInterfaceInit()
                0x080057d4                Board::axServoTxModel()
                0x080057e4                Board::axServoRxModel()
                0x080057f4                Board::axServoSendTxByte(unsigned char)
                0x08005810                Board::axServoGetRxByte(unsigned char*)
                0x08005814                Board::sbusInterfaceInit()
                0x08005828                Board::imuI2CInit()
                0x08005870                Board::imuI2CWriteByte(unsigned char, unsigned char, unsigned char, unsigned char)
                0x0800587c                Board::imuI2CReadByte(unsigned char, unsigned char, unsigned char)
                0x08005882                Board::imuI2CWriteBuf(unsigned char, unsigned char, unsigned char*, unsigned char, unsigned char)
                0x0800589a                Board::imuI2CReadBuf(unsigned char, unsigned char, unsigned char*, unsigned char, unsigned char)
                0x080058b2                Board::gpsInterfaceInit()
                0x080058c4                Board::gpsSendTxByte(unsigned char)
                0x080058e4                Board::eepromI2CInit()
                0x080058ea                Board::eepromI2CWriteByte(unsigned char, unsigned char, unsigned char, unsigned char)
                0x080058f6                Board::eepromI2CReadByte(unsigned char, unsigned char, unsigned char)
                0x080058fc                Board::eepromI2CWriteBuf(unsigned char, unsigned char, unsigned char*, unsigned char, unsigned char)
                0x08005914                Board::eepromI2CReadBuf(unsigned char, unsigned char, unsigned char*, unsigned char, unsigned char)
                0x0800592c                Board::extendI2CInit()
                0x08005932                Board::extendI2CWriteByte(unsigned char, unsigned char, unsigned char, unsigned char)
                0x0800593e                Board::extendI2CReadByte(unsigned char, unsigned char, unsigned char)
                0x08005944                Board::extendI2CWriteBuf(unsigned char, unsigned char, unsigned char*, unsigned char, unsigned char)
                0x0800595c                Board::extendI2CReadBuf(unsigned char, unsigned char, unsigned char*, unsigned char, unsigned char)
                0x08005974                Board::pwmInterfaceInit(unsigned char, float)
                0x080059cc                Board::setPWMValue(unsigned char, float)
 .text          0x08005a74      0x134 /home/kedou/Project/OpenRE/Tools/gcc-arm-none-eabi-5_4-2016q2/bin/../lib/gcc/arm-none-eabi/5.4.1/../../../../arm-none-eabi/lib/armv7e-m/fpu/libg.a(lib_a-memcpy.o)
                0x08005a74                memcpy
 *fill*         0x08005ba8       0x18 
 .text          0x08005bc0       0xdc /home/kedou/Project/OpenRE/Tools/gcc-arm-none-eabi-5_4-2016q2/bin/../lib/gcc/arm-none-eabi/5.4.1/../../../../arm-none-eabi/lib/armv7e-m/fpu/libg.a(lib_a-strlen.o)
                0x08005bc0                strlen
 *fill*         0x08005c9c        0x4 
 .text          0x08005ca0       0xa0 /home/kedou/Project/OpenRE/Tools/gcc-arm-none-eabi-5_4-2016q2/bin/../lib/gcc/arm-none-eabi/5.4.1/../../../../arm-none-eabi/lib/armv7e-m/fpu/libg.a(lib_a-memchr.o)
                0x08005ca0                memchr
 .text          0x08005d40      0x370 /home/kedou/Project/OpenRE/Tools/gcc-arm-none-eabi-5_4-2016q2/bin/../lib/gcc/arm-none-eabi/5.4.1/armv7e-m/fpu/libgcc.a(_arm_addsubdf3.o)
                0x08005d40                __aeabi_drsub
                0x08005d48                __aeabi_dsub
                0x08005d48                __subdf3
                0x08005d4c                __adddf3
                0x08005d4c                __aeabi_dadd
                0x08005fc4                __aeabi_ui2d
                0x08005fc4                __floatunsidf
                0x08005fe4                __floatsidf
                0x08005fe4                __aeabi_i2d
                0x08006008                __extendsfdf2
                0x08006008                __aeabi_f2d
                0x08006044                __aeabi_ul2d
                0x08006044                __floatundidf
                0x08006054                __floatdidf
                0x08006054                __aeabi_l2d
 .text          0x080060b0      0x424 /home/kedou/Project/OpenRE/Tools/gcc-arm-none-eabi-5_4-2016q2/bin/../lib/gcc/arm-none-eabi/5.4.1/armv7e-m/fpu/libgcc.a(_arm_muldivdf3.o)
                0x080060b0                __aeabi_dmul
                0x080060b0                __muldf3
                0x08006304                __aeabi_ddiv
                0x08006304                __divdf3
 .text          0x080064d4      0x110 /home/kedou/Project/OpenRE/Tools/gcc-arm-none-eabi-5_4-2016q2/bin/../lib/gcc/arm-none-eabi/5.4.1/armv7e-m/fpu/libgcc.a(_arm_cmpdf2.o)
                0x080064d4                __gtdf2
                0x080064d4                __gedf2
                0x080064dc                __ltdf2
                0x080064dc                __ledf2
                0x080064e4                __cmpdf2
                0x080064e4                __eqdf2
                0x080064e4                __nedf2
                0x08006560                __aeabi_cdrcmple
                0x08006570                __aeabi_cdcmple
                0x08006570                __aeabi_cdcmpeq
                0x08006580                __aeabi_dcmpeq
                0x08006594                __aeabi_dcmplt
                0x080065a8                __aeabi_dcmple
                0x080065bc                __aeabi_dcmpge
                0x080065d0                __aeabi_dcmpgt
 .text          0x080065e4       0x2c /home/kedou/Project/OpenRE/Tools/gcc-arm-none-eabi-5_4-2016q2/bin/../lib/gcc/arm-none-eabi/5.4.1/armv7e-m/fpu/libgcc.a(_arm_unorddf2.o)
                0x080065e4                __aeabi_dcmpun
                0x080065e4                __unorddf2
 .text          0x08006610       0x50 /home/kedou/Project/OpenRE/Tools/gcc-arm-none-eabi-5_4-2016q2/bin/../lib/gcc/arm-none-eabi/5.4.1/armv7e-m/fpu/libgcc.a(_arm_fixdfsi.o)
                0x08006610                __fixdfsi
                0x08006610                __aeabi_d2iz
 .text          0x08006660       0x30 /home/kedou/Project/OpenRE/Tools/gcc-arm-none-eabi-5_4-2016q2/bin/../lib/gcc/arm-none-eabi/5.4.1/armv7e-m/fpu/libgcc.a(_aeabi_uldivmod.o)
                0x08006660                __aeabi_uldivmod
 .text          0x08006690      0x2e4 /home/kedou/Project/OpenRE/Tools/gcc-arm-none-eabi-5_4-2016q2/bin/../lib/gcc/arm-none-eabi/5.4.1/armv7e-m/fpu/libgcc.a(_udivmoddi4.o)
                0x08006690                __udivmoddi4
 .text          0x08006974        0x4 /home/kedou/Project/OpenRE/Tools/gcc-arm-none-eabi-5_4-2016q2/bin/../lib/gcc/arm-none-eabi/5.4.1/armv7e-m/fpu/libgcc.a(_dvmd_tls.o)
                0x08006974                __aeabi_ldiv0
                0x08006974                __aeabi_idiv0
 *(.text*)
 .text.Reset_Handler
                0x08006978       0x44 ../../../../1_Processor/STM32F4/STM32F4-Discovery_FW_V1.1.0/Libraries/CMSIS/ST/STM32F4xx/Source/Templates/gcc_ride7/startup_stm32f4xx.o
                0x08006978                Reset_Handler
 .text.Default_Handler
                0x080069bc        0x2 ../../../../1_Processor/STM32F4/STM32F4-Discovery_FW_V1.1.0/Libraries/CMSIS/ST/STM32F4xx/Source/Templates/gcc_ride7/startup_stm32f4xx.o
                0x080069bc                HASH_RNG_IRQHandler
                0x080069bc                TIM8_CC_IRQHandler
                0x080069bc                DebugMon_Handler
                0x080069bc                TIM1_CC_IRQHandler
                0x080069bc                DMA2_Stream5_IRQHandler
                0x080069bc                HardFault_Handler
                0x080069bc                DMA1_Stream5_IRQHandler
                0x080069bc                SysTick_Handler
                0x080069bc                PVD_IRQHandler
                0x080069bc                SDIO_IRQHandler
                0x080069bc                TAMP_STAMP_IRQHandler
                0x080069bc                PendSV_Handler
                0x080069bc                NMI_Handler
                0x080069bc                CAN2_RX1_IRQHandler
                0x080069bc                TIM8_TRG_COM_TIM14_IRQHandler
                0x080069bc                TIM1_UP_TIM10_IRQHandler
                0x080069bc                TIM8_UP_TIM13_IRQHandler
                0x080069bc                I2C3_ER_IRQHandler
                0x080069bc                I2C2_EV_IRQHandler
                0x080069bc                DMA1_Stream2_IRQHandler
                0x080069bc                CAN1_RX0_IRQHandler
                0x080069bc                FPU_IRQHandler
                0x080069bc                OTG_HS_WKUP_IRQHandler
                0x080069bc                UsageFault_Handler
                0x080069bc                CAN2_SCE_IRQHandler
                0x080069bc                DMA2_Stream2_IRQHandler
                0x080069bc                SPI1_IRQHandler
                0x080069bc                TIM1_BRK_TIM9_IRQHandler
                0x080069bc                DCMI_IRQHandler
                0x080069bc                CAN2_RX0_IRQHandler
                0x080069bc                DMA2_Stream3_IRQHandler
                0x080069bc                USART6_IRQHandler
                0x080069bc                USART3_IRQHandler
                0x080069bc                CRYP_IRQHandler
                0x080069bc                CAN1_RX1_IRQHandler
                0x080069bc                UART5_IRQHandler
                0x080069bc                DMA2_Stream0_IRQHandler
                0x080069bc                TIM4_IRQHandler
                0x080069bc                I2C1_EV_IRQHandler
                0x080069bc                DMA1_Stream6_IRQHandler
                0x080069bc                DMA1_Stream1_IRQHandler
                0x080069bc                UART4_IRQHandler
                0x080069bc                TIM3_IRQHandler
                0x080069bc                RCC_IRQHandler
                0x080069bc                TIM8_BRK_TIM12_IRQHandler
                0x080069bc                Default_Handler
                0x080069bc                EXTI15_10_IRQHandler
                0x080069bc                ADC_IRQHandler
                0x080069bc                DMA1_Stream7_IRQHandler
                0x080069bc                TIM7_IRQHandler
                0x080069bc                CAN2_TX_IRQHandler
                0x080069bc                DMA2_Stream7_IRQHandler
                0x080069bc                I2C3_EV_IRQHandler
                0x080069bc                EXTI9_5_IRQHandler
                0x080069bc                ETH_WKUP_IRQHandler
                0x080069bc                SPI2_IRQHandler
                0x080069bc                OTG_HS_EP1_IN_IRQHandler
                0x080069bc                MemManage_Handler
                0x080069bc                DMA1_Stream0_IRQHandler
                0x080069bc                CAN1_TX_IRQHandler
                0x080069bc                SVC_Handler
                0x080069bc                FSMC_IRQHandler
                0x080069bc                ETH_IRQHandler
                0x080069bc                OTG_HS_EP1_OUT_IRQHandler
                0x080069bc                WWDG_IRQHandler
                0x080069bc                TIM2_IRQHandler
                0x080069bc                OTG_FS_WKUP_IRQHandler
                0x080069bc                TIM1_TRG_COM_TIM11_IRQHandler
                0x080069bc                OTG_HS_IRQHandler
                0x080069bc                USART2_IRQHandler
                0x080069bc                I2C2_ER_IRQHandler
                0x080069bc                DMA2_Stream1_IRQHandler
                0x080069bc                CAN1_SCE_IRQHandler
                0x080069bc                FLASH_IRQHandler
                0x080069bc                DMA2_Stream4_IRQHandler
                0x080069bc                BusFault_Handler
                0x080069bc                OTG_FS_IRQHandler
                0x080069bc                SPI3_IRQHandler
                0x080069bc                DMA1_Stream4_IRQHandler
                0x080069bc                I2C1_ER_IRQHandler
                0x080069bc                DMA2_Stream6_IRQHandler
                0x080069bc                DMA1_Stream3_IRQHandler
 *fill*         0x080069be        0x2 
 .text.startup  0x080069c0       0x64 ../src/main.o
                0x080069c0                main
 .text.startup  0x08006a24        0xc ../../../../1_Processor/BoardAbstract/control_unit_v1.o
 .text.printf   0x08006a30       0x28 /home/kedou/Project/OpenRE/Tools/gcc-arm-none-eabi-5_4-2016q2/bin/../lib/gcc/arm-none-eabi/5.4.1/../../../../arm-none-eabi/lib/armv7e-m/fpu/libg.a(lib_a-printf.o)
                0x08006a30                printf
 .text._puts_r  0x08006a58       0x68 /home/kedou/Project/OpenRE/Tools/gcc-arm-none-eabi-5_4-2016q2/bin/../lib/gcc/arm-none-eabi/5.4.1/../../../../arm-none-eabi/lib/armv7e-m/fpu/libg.a(lib_a-puts.o)
                0x08006a58                _puts_r
 .text.puts     0x08006ac0       0x10 /home/kedou/Project/OpenRE/Tools/gcc-arm-none-eabi-5_4-2016q2/bin/../lib/gcc/arm-none-eabi/5.4.1/../../../../arm-none-eabi/lib/armv7e-m/fpu/libg.a(lib_a-puts.o)
                0x08006ac0                puts
 .text._vfprintf_r
                0x08006ad0     0x1714 /home/kedou/Project/OpenRE/Tools/gcc-arm-none-eabi-5_4-2016q2/bin/../lib/gcc/arm-none-eabi/5.4.1/../../../../arm-none-eabi/lib/armv7e-m/fpu/libg.a(lib_a-vfprintf.o)
                0x08006ad0                _vfprintf_r
 .text.__sbprintf
                0x080081e4       0x6c /home/kedou/Project/OpenRE/Tools/gcc-arm-none-eabi-5_4-2016q2/bin/../lib/gcc/arm-none-eabi/5.4.1/../../../../arm-none-eabi/lib/armv7e-m/fpu/libg.a(lib_a-vfprintf.o)
 .text.__swsetup_r
                0x08008250       0xc8 /home/kedou/Project/OpenRE/Tools/gcc-arm-none-eabi-5_4-2016q2/bin/../lib/gcc/arm-none-eabi/5.4.1/../../../../arm-none-eabi/lib/armv7e-m/fpu/libg.a(lib_a-wsetup.o)
                0x08008250                __swsetup_r
 .text.quorem   0x08008318      0x128 /home/kedou/Project/OpenRE/Tools/gcc-arm-none-eabi-5_4-2016q2/bin/../lib/gcc/arm-none-eabi/5.4.1/../../../../arm-none-eabi/lib/armv7e-m/fpu/libg.a(lib_a-dtoa.o)
 .text._dtoa_r  0x08008440      0xe34 /home/kedou/Project/OpenRE/Tools/gcc-arm-none-eabi-5_4-2016q2/bin/../lib/gcc/arm-none-eabi/5.4.1/../../../../arm-none-eabi/lib/armv7e-m/fpu/libg.a(lib_a-dtoa.o)
                0x08008440                _dtoa_r
 .text.__sflush_r
                0x08009274      0x148 /home/kedou/Project/OpenRE/Tools/gcc-arm-none-eabi-5_4-2016q2/bin/../lib/gcc/arm-none-eabi/5.4.1/../../../../arm-none-eabi/lib/armv7e-m/fpu/libg.a(lib_a-fflush.o)
                0x08009274                __sflush_r
 .text._fflush_r
                0x080093bc       0x2c /home/kedou/Project/OpenRE/Tools/gcc-arm-none-eabi-5_4-2016q2/bin/../lib/gcc/arm-none-eabi/5.4.1/../../../../arm-none-eabi/lib/armv7e-m/fpu/libg.a(lib_a-fflush.o)
                0x080093bc                _fflush_r
 .text._cleanup_r
                0x080093e8        0xc /home/kedou/Project/OpenRE/Tools/gcc-arm-none-eabi-5_4-2016q2/bin/../lib/gcc/arm-none-eabi/5.4.1/../../../../arm-none-eabi/lib/armv7e-m/fpu/libg.a(lib_a-findfp.o)
                0x080093e8                _cleanup_r
 .text.__sinit.part.1
                0x080093f4       0xf0 /home/kedou/Project/OpenRE/Tools/gcc-arm-none-eabi-5_4-2016q2/bin/../lib/gcc/arm-none-eabi/5.4.1/../../../../arm-none-eabi/lib/armv7e-m/fpu/libg.a(lib_a-findfp.o)
 .text.__sinit  0x080094e4        0xc /home/kedou/Project/OpenRE/Tools/gcc-arm-none-eabi-5_4-2016q2/bin/../lib/gcc/arm-none-eabi/5.4.1/../../../../arm-none-eabi/lib/armv7e-m/fpu/libg.a(lib_a-findfp.o)
                0x080094e4                __sinit
 .text.__sfp_lock_acquire
                0x080094f0        0x4 /home/kedou/Project/OpenRE/Tools/gcc-arm-none-eabi-5_4-2016q2/bin/../lib/gcc/arm-none-eabi/5.4.1/../../../../arm-none-eabi/lib/armv7e-m/fpu/libg.a(lib_a-findfp.o)
                0x080094f0                __sfp_lock_acquire
 .text.__sfp_lock_release
                0x080094f4        0x4 /home/kedou/Project/OpenRE/Tools/gcc-arm-none-eabi-5_4-2016q2/bin/../lib/gcc/arm-none-eabi/5.4.1/../../../../arm-none-eabi/lib/armv7e-m/fpu/libg.a(lib_a-findfp.o)
                0x080094f4                __sfp_lock_release
 .text._malloc_trim_r
                0x080094f8       0x9c /home/kedou/Project/OpenRE/Tools/gcc-arm-none-eabi-5_4-2016q2/bin/../lib/gcc/arm-none-eabi/5.4.1/../../../../arm-none-eabi/lib/armv7e-m/fpu/libg.a(lib_a-freer.o)
                0x080094f8                _malloc_trim_r
 .text._free_r  0x08009594      0x1d0 /home/kedou/Project/OpenRE/Tools/gcc-arm-none-eabi-5_4-2016q2/bin/../lib/gcc/arm-none-eabi/5.4.1/../../../../arm-none-eabi/lib/armv7e-m/fpu/libg.a(lib_a-freer.o)
                0x08009594                _free_r
 .text.__sfvwrite_r
                0x08009764      0x304 /home/kedou/Project/OpenRE/Tools/gcc-arm-none-eabi-5_4-2016q2/bin/../lib/gcc/arm-none-eabi/5.4.1/../../../../arm-none-eabi/lib/armv7e-m/fpu/libg.a(lib_a-fvwrite.o)
                0x08009764                __sfvwrite_r
 .text._fwalk_reent
                0x08009a68       0x54 /home/kedou/Project/OpenRE/Tools/gcc-arm-none-eabi-5_4-2016q2/bin/../lib/gcc/arm-none-eabi/5.4.1/../../../../arm-none-eabi/lib/armv7e-m/fpu/libg.a(lib_a-fwalk.o)
                0x08009a68                _fwalk_reent
 .text.__locale_charset
                0x08009abc        0x8 /home/kedou/Project/OpenRE/Tools/gcc-arm-none-eabi-5_4-2016q2/bin/../lib/gcc/arm-none-eabi/5.4.1/../../../../arm-none-eabi/lib/armv7e-m/fpu/libg.a(lib_a-locale.o)
                0x08009abc                __locale_charset
 .text.__locale_mb_cur_max
                0x08009ac4        0xc /home/kedou/Project/OpenRE/Tools/gcc-arm-none-eabi-5_4-2016q2/bin/../lib/gcc/arm-none-eabi/5.4.1/../../../../arm-none-eabi/lib/armv7e-m/fpu/libg.a(lib_a-locale.o)
                0x08009ac4                __locale_mb_cur_max
 .text._localeconv_r
                0x08009ad0        0x8 /home/kedou/Project/OpenRE/Tools/gcc-arm-none-eabi-5_4-2016q2/bin/../lib/gcc/arm-none-eabi/5.4.1/../../../../arm-none-eabi/lib/armv7e-m/fpu/libg.a(lib_a-locale.o)
                0x08009ad0                _localeconv_r
 .text.__swhatbuf_r
                0x08009ad8       0x60 /home/kedou/Project/OpenRE/Tools/gcc-arm-none-eabi-5_4-2016q2/bin/../lib/gcc/arm-none-eabi/5.4.1/../../../../arm-none-eabi/lib/armv7e-m/fpu/libg.a(lib_a-makebuf.o)
                0x08009ad8                __swhatbuf_r
 .text.__smakebuf_r
                0x08009b38       0x88 /home/kedou/Project/OpenRE/Tools/gcc-arm-none-eabi-5_4-2016q2/bin/../lib/gcc/arm-none-eabi/5.4.1/../../../../arm-none-eabi/lib/armv7e-m/fpu/libg.a(lib_a-makebuf.o)
                0x08009b38                __smakebuf_r
 .text._malloc_r
                0x08009bc0      0x570 /home/kedou/Project/OpenRE/Tools/gcc-arm-none-eabi-5_4-2016q2/bin/../lib/gcc/arm-none-eabi/5.4.1/../../../../arm-none-eabi/lib/armv7e-m/fpu/libg.a(lib_a-mallocr.o)
                0x08009bc0                _malloc_r
 .text.memmove  0x0800a130       0xc8 /home/kedou/Project/OpenRE/Tools/gcc-arm-none-eabi-5_4-2016q2/bin/../lib/gcc/arm-none-eabi/5.4.1/../../../../arm-none-eabi/lib/armv7e-m/fpu/libg.a(lib_a-memmove.o)
                0x0800a130                memmove
 .text.memset   0x0800a1f8       0x9c /home/kedou/Project/OpenRE/Tools/gcc-arm-none-eabi-5_4-2016q2/bin/../lib/gcc/arm-none-eabi/5.4.1/../../../../arm-none-eabi/lib/armv7e-m/fpu/libg.a(lib_a-memset.o)
                0x0800a1f8                memset
 .text.__malloc_lock
                0x0800a294        0x4 /home/kedou/Project/OpenRE/Tools/gcc-arm-none-eabi-5_4-2016q2/bin/../lib/gcc/arm-none-eabi/5.4.1/../../../../arm-none-eabi/lib/armv7e-m/fpu/libg.a(lib_a-mlock.o)
                0x0800a294                __malloc_lock
 .text.__malloc_unlock
                0x0800a298        0x4 /home/kedou/Project/OpenRE/Tools/gcc-arm-none-eabi-5_4-2016q2/bin/../lib/gcc/arm-none-eabi/5.4.1/../../../../arm-none-eabi/lib/armv7e-m/fpu/libg.a(lib_a-mlock.o)
                0x0800a298                __malloc_unlock
 .text._Balloc  0x0800a29c       0x4c /home/kedou/Project/OpenRE/Tools/gcc-arm-none-eabi-5_4-2016q2/bin/../lib/gcc/arm-none-eabi/5.4.1/../../../../arm-none-eabi/lib/armv7e-m/fpu/libg.a(lib_a-mprec.o)
                0x0800a29c                _Balloc
 .text._Bfree   0x0800a2e8       0x14 /home/kedou/Project/OpenRE/Tools/gcc-arm-none-eabi-5_4-2016q2/bin/../lib/gcc/arm-none-eabi/5.4.1/../../../../arm-none-eabi/lib/armv7e-m/fpu/libg.a(lib_a-mprec.o)
                0x0800a2e8                _Bfree
 .text.__multadd
                0x0800a2fc       0x80 /home/kedou/Project/OpenRE/Tools/gcc-arm-none-eabi-5_4-2016q2/bin/../lib/gcc/arm-none-eabi/5.4.1/../../../../arm-none-eabi/lib/armv7e-m/fpu/libg.a(lib_a-mprec.o)
                0x0800a2fc                __multadd
 .text.__hi0bits
                0x0800a37c       0x40 /home/kedou/Project/OpenRE/Tools/gcc-arm-none-eabi-5_4-2016q2/bin/../lib/gcc/arm-none-eabi/5.4.1/../../../../arm-none-eabi/lib/armv7e-m/fpu/libg.a(lib_a-mprec.o)
                0x0800a37c                __hi0bits
 .text.__lo0bits
                0x0800a3bc       0x5c /home/kedou/Project/OpenRE/Tools/gcc-arm-none-eabi-5_4-2016q2/bin/../lib/gcc/arm-none-eabi/5.4.1/../../../../arm-none-eabi/lib/armv7e-m/fpu/libg.a(lib_a-mprec.o)
                0x0800a3bc                __lo0bits
 .text.__i2b    0x0800a418       0x14 /home/kedou/Project/OpenRE/Tools/gcc-arm-none-eabi-5_4-2016q2/bin/../lib/gcc/arm-none-eabi/5.4.1/../../../../arm-none-eabi/lib/armv7e-m/fpu/libg.a(lib_a-mprec.o)
                0x0800a418                __i2b
 .text.__multiply
                0x0800a42c      0x130 /home/kedou/Project/OpenRE/Tools/gcc-arm-none-eabi-5_4-2016q2/bin/../lib/gcc/arm-none-eabi/5.4.1/../../../../arm-none-eabi/lib/armv7e-m/fpu/libg.a(lib_a-mprec.o)
                0x0800a42c                __multiply
 .text.__pow5mult
                0x0800a55c       0xa0 /home/kedou/Project/OpenRE/Tools/gcc-arm-none-eabi-5_4-2016q2/bin/../lib/gcc/arm-none-eabi/5.4.1/../../../../arm-none-eabi/lib/armv7e-m/fpu/libg.a(lib_a-mprec.o)
                0x0800a55c                __pow5mult
 .text.__lshift
                0x0800a5fc       0xb0 /home/kedou/Project/OpenRE/Tools/gcc-arm-none-eabi-5_4-2016q2/bin/../lib/gcc/arm-none-eabi/5.4.1/../../../../arm-none-eabi/lib/armv7e-m/fpu/libg.a(lib_a-mprec.o)
                0x0800a5fc                __lshift
 .text.__mcmp   0x0800a6ac       0x44 /home/kedou/Project/OpenRE/Tools/gcc-arm-none-eabi-5_4-2016q2/bin/../lib/gcc/arm-none-eabi/5.4.1/../../../../arm-none-eabi/lib/armv7e-m/fpu/libg.a(lib_a-mprec.o)
                0x0800a6ac                __mcmp
 .text.__mdiff  0x0800a6f0      0x114 /home/kedou/Project/OpenRE/Tools/gcc-arm-none-eabi-5_4-2016q2/bin/../lib/gcc/arm-none-eabi/5.4.1/../../../../arm-none-eabi/lib/armv7e-m/fpu/libg.a(lib_a-mprec.o)
                0x0800a6f0                __mdiff
 .text.__d2b    0x0800a804       0xbc /home/kedou/Project/OpenRE/Tools/gcc-arm-none-eabi-5_4-2016q2/bin/../lib/gcc/arm-none-eabi/5.4.1/../../../../arm-none-eabi/lib/armv7e-m/fpu/libg.a(lib_a-mprec.o)
                0x0800a804                __d2b
 .text._realloc_r
                0x0800a8c0      0x3e0 /home/kedou/Project/OpenRE/Tools/gcc-arm-none-eabi-5_4-2016q2/bin/../lib/gcc/arm-none-eabi/5.4.1/../../../../arm-none-eabi/lib/armv7e-m/fpu/libg.a(lib_a-reallocr.o)
                0x0800a8c0                _realloc_r
 .text._sbrk_r  0x0800aca0       0x24 /home/kedou/Project/OpenRE/Tools/gcc-arm-none-eabi-5_4-2016q2/bin/../lib/gcc/arm-none-eabi/5.4.1/../../../../arm-none-eabi/lib/armv7e-m/fpu/libg.a(lib_a-sbrkr.o)
                0x0800aca0                _sbrk_r
 .text.__sread  0x0800acc4       0x24 /home/kedou/Project/OpenRE/Tools/gcc-arm-none-eabi-5_4-2016q2/bin/../lib/gcc/arm-none-eabi/5.4.1/../../../../arm-none-eabi/lib/armv7e-m/fpu/libg.a(lib_a-stdio.o)
                0x0800acc4                __sread
 .text.__swrite
                0x0800ace8       0x3c /home/kedou/Project/OpenRE/Tools/gcc-arm-none-eabi-5_4-2016q2/bin/../lib/gcc/arm-none-eabi/5.4.1/../../../../arm-none-eabi/lib/armv7e-m/fpu/libg.a(lib_a-stdio.o)
                0x0800ace8                __swrite
 .text.__sseek  0x0800ad24       0x20 /home/kedou/Project/OpenRE/Tools/gcc-arm-none-eabi-5_4-2016q2/bin/../lib/gcc/arm-none-eabi/5.4.1/../../../../arm-none-eabi/lib/armv7e-m/fpu/libg.a(lib_a-stdio.o)
                0x0800ad24                __sseek
 .text.__sclose
                0x0800ad44        0x8 /home/kedou/Project/OpenRE/Tools/gcc-arm-none-eabi-5_4-2016q2/bin/../lib/gcc/arm-none-eabi/5.4.1/../../../../arm-none-eabi/lib/armv7e-m/fpu/libg.a(lib_a-stdio.o)
                0x0800ad44                __sclose
 .text.__sprint_r.part.0
                0x0800ad4c       0x78 /home/kedou/Project/OpenRE/Tools/gcc-arm-none-eabi-5_4-2016q2/bin/../lib/gcc/arm-none-eabi/5.4.1/../../../../arm-none-eabi/lib/armv7e-m/fpu/libg.a(lib_a-vfiprintf.o)
 .text.__sprint_r
                0x0800adc4       0x14 /home/kedou/Project/OpenRE/Tools/gcc-arm-none-eabi-5_4-2016q2/bin/../lib/gcc/arm-none-eabi/5.4.1/../../../../arm-none-eabi/lib/armv7e-m/fpu/libg.a(lib_a-vfiprintf.o)
                0x0800adc4                __sprint_r
 .text._write_r
                0x0800add8       0x2c /home/kedou/Project/OpenRE/Tools/gcc-arm-none-eabi-5_4-2016q2/bin/../lib/gcc/arm-none-eabi/5.4.1/../../../../arm-none-eabi/lib/armv7e-m/fpu/libg.a(lib_a-writer.o)
                0x0800add8                _write_r
 .text._calloc_r
                0x0800ae04       0x60 /home/kedou/Project/OpenRE/Tools/gcc-arm-none-eabi-5_4-2016q2/bin/../lib/gcc/arm-none-eabi/5.4.1/../../../../arm-none-eabi/lib/armv7e-m/fpu/libg.a(lib_a-callocr.o)
                0x0800ae04                _calloc_r
 .text._close_r
                0x0800ae64       0x24 /home/kedou/Project/OpenRE/Tools/gcc-arm-none-eabi-5_4-2016q2/bin/../lib/gcc/arm-none-eabi/5.4.1/../../../../arm-none-eabi/lib/armv7e-m/fpu/libg.a(lib_a-closer.o)
                0x0800ae64                _close_r
 .text._fclose_r
                0x0800ae88       0x84 /home/kedou/Project/OpenRE/Tools/gcc-arm-none-eabi-5_4-2016q2/bin/../lib/gcc/arm-none-eabi/5.4.1/../../../../arm-none-eabi/lib/armv7e-m/fpu/libg.a(lib_a-fclose.o)
                0x0800ae88                _fclose_r
 .text.__fputwc
                0x0800af0c       0x98 /home/kedou/Project/OpenRE/Tools/gcc-arm-none-eabi-5_4-2016q2/bin/../lib/gcc/arm-none-eabi/5.4.1/../../../../arm-none-eabi/lib/armv7e-m/fpu/libg.a(lib_a-fputwc.o)
                0x0800af0c                __fputwc
 .text._fputwc_r
                0x0800afa4       0x28 /home/kedou/Project/OpenRE/Tools/gcc-arm-none-eabi-5_4-2016q2/bin/../lib/gcc/arm-none-eabi/5.4.1/../../../../arm-none-eabi/lib/armv7e-m/fpu/libg.a(lib_a-fputwc.o)
                0x0800afa4                _fputwc_r
 .text._fstat_r
                0x0800afcc       0x28 /home/kedou/Project/OpenRE/Tools/gcc-arm-none-eabi-5_4-2016q2/bin/../lib/gcc/arm-none-eabi/5.4.1/../../../../arm-none-eabi/lib/armv7e-m/fpu/libg.a(lib_a-fstatr.o)
                0x0800afcc                _fstat_r
 .text._isatty_r
                0x0800aff4       0x24 /home/kedou/Project/OpenRE/Tools/gcc-arm-none-eabi-5_4-2016q2/bin/../lib/gcc/arm-none-eabi/5.4.1/../../../../arm-none-eabi/lib/armv7e-m/fpu/libg.a(lib_a-isattyr.o)
                0x0800aff4                _isatty_r
 .text._lseek_r
                0x0800b018       0x2c /home/kedou/Project/OpenRE/Tools/gcc-arm-none-eabi-5_4-2016q2/bin/../lib/gcc/arm-none-eabi/5.4.1/../../../../arm-none-eabi/lib/armv7e-m/fpu/libg.a(lib_a-lseekr.o)
                0x0800b018                _lseek_r
 .text._read_r  0x0800b044       0x2c /home/kedou/Project/OpenRE/Tools/gcc-arm-none-eabi-5_4-2016q2/bin/../lib/gcc/arm-none-eabi/5.4.1/../../../../arm-none-eabi/lib/armv7e-m/fpu/libg.a(lib_a-readr.o)
                0x0800b044                _read_r
 .text.__swbuf_r
                0x0800b070       0xac /home/kedou/Project/OpenRE/Tools/gcc-arm-none-eabi-5_4-2016q2/bin/../lib/gcc/arm-none-eabi/5.4.1/../../../../arm-none-eabi/lib/armv7e-m/fpu/libg.a(lib_a-wbuf.o)
                0x0800b070                __swbuf_r
 .text._wcrtomb_r
                0x0800b11c       0x54 /home/kedou/Project/OpenRE/Tools/gcc-arm-none-eabi-5_4-2016q2/bin/../lib/gcc/arm-none-eabi/5.4.1/../../../../arm-none-eabi/lib/armv7e-m/fpu/libg.a(lib_a-wcrtomb.o)
                0x0800b11c                _wcrtomb_r
 .text.__ascii_wctomb
                0x0800b170       0x1c /home/kedou/Project/OpenRE/Tools/gcc-arm-none-eabi-5_4-2016q2/bin/../lib/gcc/arm-none-eabi/5.4.1/../../../../arm-none-eabi/lib/armv7e-m/fpu/libg.a(lib_a-wctomb_r.o)
                0x0800b170                __ascii_wctomb
 *(.rodata)
 .rodata        0x0800b18c        0xc ../../../../1_Processor/STM32F4/BSPLIB/rtc.o
                0x0800b18c                table_week
 *(.rodata*)
 .rodata.str1.1
                0x0800b198       0x1f ../../../../1_Processor/STM32F4/BSPLIB/usart.o
 .rodata.str1.1
                0x0800b1b7       0x27 ../src/main.o
 *fill*         0x0800b1de        0x2 
 .rodata.str1.4
                0x0800b1e0        0x2 /home/kedou/Project/OpenRE/Tools/gcc-arm-none-eabi-5_4-2016q2/bin/../lib/gcc/arm-none-eabi/5.4.1/../../../../arm-none-eabi/lib/armv7e-m/fpu/libg.a(lib_a-puts.o)
 *fill*         0x0800b1e2        0x2 
 .rodata.blanks.7072
                0x0800b1e4       0x10 /home/kedou/Project/OpenRE/Tools/gcc-arm-none-eabi-5_4-2016q2/bin/../lib/gcc/arm-none-eabi/5.4.1/../../../../arm-none-eabi/lib/armv7e-m/fpu/libg.a(lib_a-vfprintf.o)
 .rodata.str1.4
                0x0800b1f4       0x42 /home/kedou/Project/OpenRE/Tools/gcc-arm-none-eabi-5_4-2016q2/bin/../lib/gcc/arm-none-eabi/5.4.1/../../../../arm-none-eabi/lib/armv7e-m/fpu/libg.a(lib_a-vfprintf.o)
 *fill*         0x0800b236        0x2 
 .rodata.zeroes.7073
                0x0800b238       0x10 /home/kedou/Project/OpenRE/Tools/gcc-arm-none-eabi-5_4-2016q2/bin/../lib/gcc/arm-none-eabi/5.4.1/../../../../arm-none-eabi/lib/armv7e-m/fpu/libg.a(lib_a-vfprintf.o)
 .rodata.str1.4
                0x0800b248       0x10 /home/kedou/Project/OpenRE/Tools/gcc-arm-none-eabi-5_4-2016q2/bin/../lib/gcc/arm-none-eabi/5.4.1/../../../../arm-none-eabi/lib/armv7e-m/fpu/libg.a(lib_a-dtoa.o)
                                 0x12 (size before relaxing)
 .rodata.str1.4
                0x0800b258        0x2 /home/kedou/Project/OpenRE/Tools/gcc-arm-none-eabi-5_4-2016q2/bin/../lib/gcc/arm-none-eabi/5.4.1/../../../../arm-none-eabi/lib/armv7e-m/fpu/libg.a(lib_a-impure.o)
 *fill*         0x0800b25a        0x2 
 .rodata.str1.4
                0x0800b25c        0xc /home/kedou/Project/OpenRE/Tools/gcc-arm-none-eabi-5_4-2016q2/bin/../lib/gcc/arm-none-eabi/5.4.1/../../../../arm-none-eabi/lib/armv7e-m/fpu/libg.a(lib_a-locale.o)
                                 0x12 (size before relaxing)
 .rodata.p05.5398
                0x0800b268        0xc /home/kedou/Project/OpenRE/Tools/gcc-arm-none-eabi-5_4-2016q2/bin/../lib/gcc/arm-none-eabi/5.4.1/../../../../arm-none-eabi/lib/armv7e-m/fpu/libg.a(lib_a-mprec.o)
 *fill*         0x0800b274        0x4 
 .rodata.__mprec_tens
                0x0800b278       0xc8 /home/kedou/Project/OpenRE/Tools/gcc-arm-none-eabi-5_4-2016q2/bin/../lib/gcc/arm-none-eabi/5.4.1/../../../../arm-none-eabi/lib/armv7e-m/fpu/libg.a(lib_a-mprec.o)
                0x0800b278                __mprec_tens
 .rodata.__mprec_bigtens
                0x0800b340       0x28 /home/kedou/Project/OpenRE/Tools/gcc-arm-none-eabi-5_4-2016q2/bin/../lib/gcc/arm-none-eabi/5.4.1/../../../../arm-none-eabi/lib/armv7e-m/fpu/libg.a(lib_a-mprec.o)
                0x0800b340                __mprec_bigtens
 *(.glue_7)
 .glue_7        0x0800b368        0x0 linker stubs
 *(.glue_7t)
 .glue_7t       0x0800b368        0x0 linker stubs
 *(.eh_frame)
 *(.init)
 *(.fini)
                0x0800b368                . = ALIGN (0x4)
                0x0800b368                _etext = .

.vfp11_veneer   0x0800b368        0x0
 .vfp11_veneer  0x0800b368        0x0 linker stubs

.v4_bx          0x0800b368        0x0
 .v4_bx         0x0800b368        0x0 linker stubs

.iplt           0x0800b368        0x0
 .iplt          0x0800b368        0x0 ../../../../1_Processor/STM32F4/STM32F4-Discovery_FW_V1.1.0/Libraries/CMSIS/ST/STM32F4xx/Source/Templates/gcc_ride7/startup_stm32f4xx.o

.ARM.extab
 *(.ARM.extab* .gnu.linkonce.armextab.*)

.ARM            0x0800b368        0x8
                0x0800b368                __exidx_start = .
 *(.ARM.exidx*)
 .ARM.exidx     0x0800b368        0x8 /home/kedou/Project/OpenRE/Tools/gcc-arm-none-eabi-5_4-2016q2/bin/../lib/gcc/arm-none-eabi/5.4.1/armv7e-m/fpu/libgcc.a(_udivmoddi4.o)
                0x0800b370                __exidx_end = .

.rel.dyn        0x0800b370        0x0
 .rel.iplt      0x0800b370        0x0 ../../../../1_Processor/STM32F4/STM32F4-Discovery_FW_V1.1.0/Libraries/CMSIS/ST/STM32F4xx/Source/Templates/gcc_ride7/startup_stm32f4xx.o

.preinit_array  0x0800b370        0x0
                [!provide]                PROVIDE (__preinit_array_start, .)
 *(.preinit_array*)
                [!provide]                PROVIDE (__preinit_array_end, .)

.init_array     0x0800b370        0x4
                [!provide]                PROVIDE (__init_array_start, .)
 *(SORT(.init_array.*))
 *(.init_array*)
 .init_array    0x0800b370        0x4 ../../../../1_Processor/BoardAbstract/control_unit_v1.o
                [!provide]                PROVIDE (__init_array_end, .)

.fini_array     0x0800b374        0x0
                [!provide]                PROVIDE (__fini_array_start, .)
 *(.fini_array*)
 *(SORT(.fini_array.*))
                [!provide]                PROVIDE (__fini_array_end, .)
                0x0800b374                _sidata = .

.data           0x20000000      0x8c4 load address 0x0800b374
                0x20000000                . = ALIGN (0x4)
                0x20000000                _sdata = .
 *(.data)
 .data          0x20000000       0x14 ../../../../1_Processor/STM32F4/STM32F4-Discovery_FW_V1.1.0/Libraries/CMSIS/ST/STM32F4xx/Source/Templates/system_stm32f4xx.o
                0x20000000                SystemCoreClock
                0x20000004                AHBPrescTable
 .data          0x20000014       0x10 ../../../../1_Processor/STM32F4/STM32F4-Discovery_FW_V1.1.0/Libraries/STM32F4xx_StdPeriph_Driver/src/stm32f4xx_rcc.o
 *(.data*)
 *fill*         0x20000024        0x4 
 .data.impure_data
                0x20000028      0x428 /home/kedou/Project/OpenRE/Tools/gcc-arm-none-eabi-5_4-2016q2/bin/../lib/gcc/arm-none-eabi/5.4.1/../../../../arm-none-eabi/lib/armv7e-m/fpu/libg.a(lib_a-impure.o)
 .data._impure_ptr
                0x20000450        0x4 /home/kedou/Project/OpenRE/Tools/gcc-arm-none-eabi-5_4-2016q2/bin/../lib/gcc/arm-none-eabi/5.4.1/../../../../arm-none-eabi/lib/armv7e-m/fpu/libg.a(lib_a-impure.o)
                0x20000450                _impure_ptr
 .data.lconv    0x20000454       0x38 /home/kedou/Project/OpenRE/Tools/gcc-arm-none-eabi-5_4-2016q2/bin/../lib/gcc/arm-none-eabi/5.4.1/../../../../arm-none-eabi/lib/armv7e-m/fpu/libg.a(lib_a-locale.o)
 .data.lc_ctype_charset
                0x2000048c       0x20 /home/kedou/Project/OpenRE/Tools/gcc-arm-none-eabi-5_4-2016q2/bin/../lib/gcc/arm-none-eabi/5.4.1/../../../../arm-none-eabi/lib/armv7e-m/fpu/libg.a(lib_a-locale.o)
 .data.__mb_cur_max
                0x200004ac        0x4 /home/kedou/Project/OpenRE/Tools/gcc-arm-none-eabi-5_4-2016q2/bin/../lib/gcc/arm-none-eabi/5.4.1/../../../../arm-none-eabi/lib/armv7e-m/fpu/libg.a(lib_a-locale.o)
                0x200004ac                __mb_cur_max
 .data.__malloc_av_
                0x200004b0      0x408 /home/kedou/Project/OpenRE/Tools/gcc-arm-none-eabi-5_4-2016q2/bin/../lib/gcc/arm-none-eabi/5.4.1/../../../../arm-none-eabi/lib/armv7e-m/fpu/libg.a(lib_a-mallocr.o)
                0x200004b0                __malloc_av_
 .data.__malloc_trim_threshold
                0x200008b8        0x4 /home/kedou/Project/OpenRE/Tools/gcc-arm-none-eabi-5_4-2016q2/bin/../lib/gcc/arm-none-eabi/5.4.1/../../../../arm-none-eabi/lib/armv7e-m/fpu/libg.a(lib_a-mallocr.o)
                0x200008b8                __malloc_trim_threshold
 .data.__malloc_sbrk_base
                0x200008bc        0x4 /home/kedou/Project/OpenRE/Tools/gcc-arm-none-eabi-5_4-2016q2/bin/../lib/gcc/arm-none-eabi/5.4.1/../../../../arm-none-eabi/lib/armv7e-m/fpu/libg.a(lib_a-mallocr.o)
                0x200008bc                __malloc_sbrk_base
 .data.__wctomb
                0x200008c0        0x4 /home/kedou/Project/OpenRE/Tools/gcc-arm-none-eabi-5_4-2016q2/bin/../lib/gcc/arm-none-eabi/5.4.1/../../../../arm-none-eabi/lib/armv7e-m/fpu/libg.a(lib_a-wctomb_r.o)
                0x200008c0                __wctomb
                0x200008c4                . = ALIGN (0x4)
                0x200008c4                _edata = .

.igot.plt       0x200008c4        0x0 load address 0x0800bc38
 .igot.plt      0x200008c4        0x0 ../../../../1_Processor/STM32F4/STM32F4-Discovery_FW_V1.1.0/Libraries/CMSIS/ST/STM32F4xx/Source/Templates/gcc_ride7/startup_stm32f4xx.o
                0x200008c4                . = ALIGN (0x4)

.bss            0x200008c4      0x170 load address 0x0800bc38
                0x200008c4                _sbss = .
                0x200008c4                __bss_start__ = _sbss
 *(.bss)
 .bss           0x200008c4       0x84 ../../../../1_Processor/STM32F4/BSPLIB/adc_dac.o
                0x200008c4                ADC_EN_NUM
                0x200008c8                ADC_Sample_Value
 .bss           0x20000948        0xc ../../../../1_Processor/STM32F4/BSPLIB/delay.o
                0x20000948                fac_us
                0x2000094a                fac_ms
                0x2000094c                M_time
 .bss           0x20000954       0x28 ../../../../1_Processor/STM32F4/BSPLIB/pwm_in.o
                0x20000954                PWM_Input_CH
 .bss           0x2000097c       0x20 ../../../../1_Processor/STM32F4/BSPLIB/pwm_out.o
                0x2000097c                pwm_out_data_r
 .bss           0x2000099c        0x8 ../../../../1_Processor/STM32F4/BSPLIB/rtc.o
                0x2000099c                calendar_r
 .bss           0x200009a4        0x8 ../../../../1_Processor/STM32F4/BSPLIB/usart.o
                0x200009a8                __env
 .bss           0x200009ac       0x50 ../../../../1_Processor/BoardAbstract/control_unit_v1.o
                0x200009ac                board
 *(.bss*)
 .bss.__malloc_max_total_mem
                0x200009fc        0x4 /home/kedou/Project/OpenRE/Tools/gcc-arm-none-eabi-5_4-2016q2/bin/../lib/gcc/arm-none-eabi/5.4.1/../../../../arm-none-eabi/lib/armv7e-m/fpu/libg.a(lib_a-mallocr.o)
                0x200009fc                __malloc_max_total_mem
 .bss.__malloc_max_sbrked_mem
                0x20000a00        0x4 /home/kedou/Project/OpenRE/Tools/gcc-arm-none-eabi-5_4-2016q2/bin/../lib/gcc/arm-none-eabi/5.4.1/../../../../arm-none-eabi/lib/armv7e-m/fpu/libg.a(lib_a-mallocr.o)
                0x20000a00                __malloc_max_sbrked_mem
 .bss.__malloc_top_pad
                0x20000a04        0x4 /home/kedou/Project/OpenRE/Tools/gcc-arm-none-eabi-5_4-2016q2/bin/../lib/gcc/arm-none-eabi/5.4.1/../../../../arm-none-eabi/lib/armv7e-m/fpu/libg.a(lib_a-mallocr.o)
                0x20000a04                __malloc_top_pad
 .bss.__malloc_current_mallinfo
                0x20000a08       0x28 /home/kedou/Project/OpenRE/Tools/gcc-arm-none-eabi-5_4-2016q2/bin/../lib/gcc/arm-none-eabi/5.4.1/../../../../arm-none-eabi/lib/armv7e-m/fpu/libg.a(lib_a-mallocr.o)
                0x20000a08                __malloc_current_mallinfo
 *(COMMON)
 COMMON         0x20000a30        0x4 /home/kedou/Project/OpenRE/Tools/gcc-arm-none-eabi-5_4-2016q2/bin/../lib/gcc/arm-none-eabi/5.4.1/../../../../arm-none-eabi/lib/armv7e-m/fpu/libg.a(lib_a-reent.o)
                0x20000a30                errno
                0x20000a34                . = ALIGN (0x4)
                0x20000a34                _ebss = .
                0x20000a34                __bss_end__ = _ebss

._user_heap_stack
                0x20000a34      0x400 load address 0x0800bda8
                0x20000a34                . = ALIGN (0x4)
                [!provide]                PROVIDE (end, .)
                [!provide]                PROVIDE (_end, .)
                0x20000a34                . = (. + _Min_Heap_Size)
                0x20000e34                . = (. + _Min_Stack_Size)
 *fill*         0x20000a34      0x400 
                0x20000e34                . = ALIGN (0x4)

.memory_b1_text
 *(.mb1text)
 *(.mb1text*)
 *(.mb1rodata)
 *(.mb1rodata*)

/DISCARD/
 libc.a(*)
 libm.a(*)
 libgcc.a(*)

.ARM.attributes
                0x00000000       0x35
 *(.ARM.attributes)
 .ARM.attributes
                0x00000000       0x21 ../../../../1_Processor/STM32F4/STM32F4-Discovery_FW_V1.1.0/Libraries/CMSIS/ST/STM32F4xx/Source/Templates/gcc_ride7/startup_stm32f4xx.o
 .ARM.attributes
                0x00000021       0x39 ../../../../1_Processor/STM32F4/STM32F4-Discovery_FW_V1.1.0/Libraries/CMSIS/ST/STM32F4xx/Source/Templates/system_stm32f4xx.o
 .ARM.attributes
                0x0000005a       0x39 ../../../../1_Processor/STM32F4/STM32F4-Discovery_FW_V1.1.0/Libraries/STM32F4xx_StdPeriph_Driver/src/misc.o
 .ARM.attributes
                0x00000093       0x39 ../../../../1_Processor/STM32F4/STM32F4-Discovery_FW_V1.1.0/Libraries/STM32F4xx_StdPeriph_Driver/src/stm32f4xx_adc.o
 .ARM.attributes
                0x000000cc       0x39 ../../../../1_Processor/STM32F4/STM32F4-Discovery_FW_V1.1.0/Libraries/STM32F4xx_StdPeriph_Driver/src/stm32f4xx_dac.o
 .ARM.attributes
                0x00000105       0x39 ../../../../1_Processor/STM32F4/STM32F4-Discovery_FW_V1.1.0/Libraries/STM32F4xx_StdPeriph_Driver/src/stm32f4xx_dma.o
 .ARM.attributes
                0x0000013e       0x39 ../../../../1_Processor/STM32F4/STM32F4-Discovery_FW_V1.1.0/Libraries/STM32F4xx_StdPeriph_Driver/src/stm32f4xx_exti.o
 .ARM.attributes
                0x00000177       0x39 ../../../../1_Processor/STM32F4/STM32F4-Discovery_FW_V1.1.0/Libraries/STM32F4xx_StdPeriph_Driver/src/stm32f4xx_gpio.o
 .ARM.attributes
                0x000001b0       0x39 ../../../../1_Processor/STM32F4/STM32F4-Discovery_FW_V1.1.0/Libraries/STM32F4xx_StdPeriph_Driver/src/stm32f4xx_pwr.o
 .ARM.attributes
                0x000001e9       0x39 ../../../../1_Processor/STM32F4/STM32F4-Discovery_FW_V1.1.0/Libraries/STM32F4xx_StdPeriph_Driver/src/stm32f4xx_rcc.o
 .ARM.attributes
                0x00000222       0x39 ../../../../1_Processor/STM32F4/STM32F4-Discovery_FW_V1.1.0/Libraries/STM32F4xx_StdPeriph_Driver/src/stm32f4xx_rtc.o
 .ARM.attributes
                0x0000025b       0x39 ../../../../1_Processor/STM32F4/STM32F4-Discovery_FW_V1.1.0/Libraries/STM32F4xx_StdPeriph_Driver/src/stm32f4xx_syscfg.o
 .ARM.attributes
                0x00000294       0x39 ../../../../1_Processor/STM32F4/STM32F4-Discovery_FW_V1.1.0/Libraries/STM32F4xx_StdPeriph_Driver/src/stm32f4xx_tim.o
 .ARM.attributes
                0x000002cd       0x39 ../../../../1_Processor/STM32F4/STM32F4-Discovery_FW_V1.1.0/Libraries/STM32F4xx_StdPeriph_Driver/src/stm32f4xx_usart.o
 .ARM.attributes
                0x00000306       0x39 ../../../../1_Processor/STM32F4/BSPLIB/adc_dac.o
 .ARM.attributes
                0x0000033f       0x39 ../../../../1_Processor/STM32F4/BSPLIB/delay.o
 .ARM.attributes
                0x00000378       0x39 ../../../../1_Processor/STM32F4/BSPLIB/encoder.o
 .ARM.attributes
                0x000003b1       0x39 ../../../../1_Processor/STM32F4/BSPLIB/i2c.o
 .ARM.attributes
                0x000003ea       0x39 ../../../../1_Processor/STM32F4/BSPLIB/nvic.o
 .ARM.attributes
                0x00000423       0x39 ../../../../1_Processor/STM32F4/BSPLIB/pwm_in.o
 .ARM.attributes
                0x0000045c       0x39 ../../../../1_Processor/STM32F4/BSPLIB/pwm_out.o
 .ARM.attributes
                0x00000495       0x39 ../../../../1_Processor/STM32F4/BSPLIB/rtc.o
 .ARM.attributes
                0x000004ce       0x39 ../../../../1_Processor/STM32F4/BSPLIB/timer.o
 .ARM.attributes
                0x00000507       0x39 ../../../../1_Processor/STM32F4/BSPLIB/usart.o
 .ARM.attributes
                0x00000540       0x39 ../src/main.o
 .ARM.attributes
                0x00000579       0x39 ../src/stm32f4xx_it.o
 .ARM.attributes
                0x000005b2       0x39 ../../../../1_Processor/BoardAbstract/control_unit_v1.o
 .ARM.attributes
                0x000005eb       0x20 /home/kedou/Project/OpenRE/Tools/gcc-arm-none-eabi-5_4-2016q2/bin/../lib/gcc/arm-none-eabi/5.4.1/../../../../arm-none-eabi/lib/armv7e-m/fpu/libg.a(lib_a-memcpy.o)
 .ARM.attributes
                0x0000060b       0x34 /home/kedou/Project/OpenRE/Tools/gcc-arm-none-eabi-5_4-2016q2/bin/../lib/gcc/arm-none-eabi/5.4.1/../../../../arm-none-eabi/lib/armv7e-m/fpu/libg.a(lib_a-printf.o)
 .ARM.attributes
                0x0000063f       0x34 /home/kedou/Project/OpenRE/Tools/gcc-arm-none-eabi-5_4-2016q2/bin/../lib/gcc/arm-none-eabi/5.4.1/../../../../arm-none-eabi/lib/armv7e-m/fpu/libg.a(lib_a-puts.o)
 .ARM.attributes
                0x00000673       0x34 /home/kedou/Project/OpenRE/Tools/gcc-arm-none-eabi-5_4-2016q2/bin/../lib/gcc/arm-none-eabi/5.4.1/../../../../arm-none-eabi/lib/armv7e-m/fpu/libg.a(lib_a-reent.o)
 .ARM.attributes
                0x000006a7       0x20 /home/kedou/Project/OpenRE/Tools/gcc-arm-none-eabi-5_4-2016q2/bin/../lib/gcc/arm-none-eabi/5.4.1/../../../../arm-none-eabi/lib/armv7e-m/fpu/libg.a(lib_a-strlen.o)
 .ARM.attributes
                0x000006c7       0x34 /home/kedou/Project/OpenRE/Tools/gcc-arm-none-eabi-5_4-2016q2/bin/../lib/gcc/arm-none-eabi/5.4.1/../../../../arm-none-eabi/lib/armv7e-m/fpu/libg.a(lib_a-vfprintf.o)
 .ARM.attributes
                0x000006fb       0x34 /home/kedou/Project/OpenRE/Tools/gcc-arm-none-eabi-5_4-2016q2/bin/../lib/gcc/arm-none-eabi/5.4.1/../../../../arm-none-eabi/lib/armv7e-m/fpu/libg.a(lib_a-wsetup.o)
 .ARM.attributes
                0x0000072f       0x34 /home/kedou/Project/OpenRE/Tools/gcc-arm-none-eabi-5_4-2016q2/bin/../lib/gcc/arm-none-eabi/5.4.1/../../../../arm-none-eabi/lib/armv7e-m/fpu/libg.a(lib_a-dtoa.o)
 .ARM.attributes
                0x00000763       0x34 /home/kedou/Project/OpenRE/Tools/gcc-arm-none-eabi-5_4-2016q2/bin/../lib/gcc/arm-none-eabi/5.4.1/../../../../arm-none-eabi/lib/armv7e-m/fpu/libg.a(lib_a-fflush.o)
 .ARM.attributes
                0x00000797       0x34 /home/kedou/Project/OpenRE/Tools/gcc-arm-none-eabi-5_4-2016q2/bin/../lib/gcc/arm-none-eabi/5.4.1/../../../../arm-none-eabi/lib/armv7e-m/fpu/libg.a(lib_a-findfp.o)
 .ARM.attributes
                0x000007cb       0x34 /home/kedou/Project/OpenRE/Tools/gcc-arm-none-eabi-5_4-2016q2/bin/../lib/gcc/arm-none-eabi/5.4.1/../../../../arm-none-eabi/lib/armv7e-m/fpu/libg.a(lib_a-freer.o)
 .ARM.attributes
                0x000007ff       0x34 /home/kedou/Project/OpenRE/Tools/gcc-arm-none-eabi-5_4-2016q2/bin/../lib/gcc/arm-none-eabi/5.4.1/../../../../arm-none-eabi/lib/armv7e-m/fpu/libg.a(lib_a-fvwrite.o)
 .ARM.attributes
                0x00000833       0x34 /home/kedou/Project/OpenRE/Tools/gcc-arm-none-eabi-5_4-2016q2/bin/../lib/gcc/arm-none-eabi/5.4.1/../../../../arm-none-eabi/lib/armv7e-m/fpu/libg.a(lib_a-fwalk.o)
 .ARM.attributes
                0x00000867       0x34 /home/kedou/Project/OpenRE/Tools/gcc-arm-none-eabi-5_4-2016q2/bin/../lib/gcc/arm-none-eabi/5.4.1/../../../../arm-none-eabi/lib/armv7e-m/fpu/libg.a(lib_a-impure.o)
 .ARM.attributes
                0x0000089b       0x34 /home/kedou/Project/OpenRE/Tools/gcc-arm-none-eabi-5_4-2016q2/bin/../lib/gcc/arm-none-eabi/5.4.1/../../../../arm-none-eabi/lib/armv7e-m/fpu/libg.a(lib_a-locale.o)
 .ARM.attributes
                0x000008cf       0x34 /home/kedou/Project/OpenRE/Tools/gcc-arm-none-eabi-5_4-2016q2/bin/../lib/gcc/arm-none-eabi/5.4.1/../../../../arm-none-eabi/lib/armv7e-m/fpu/libg.a(lib_a-makebuf.o)
 .ARM.attributes
                0x00000903       0x34 /home/kedou/Project/OpenRE/Tools/gcc-arm-none-eabi-5_4-2016q2/bin/../lib/gcc/arm-none-eabi/5.4.1/../../../../arm-none-eabi/lib/armv7e-m/fpu/libg.a(lib_a-mallocr.o)
 .ARM.attributes
                0x00000937       0x20 /home/kedou/Project/OpenRE/Tools/gcc-arm-none-eabi-5_4-2016q2/bin/../lib/gcc/arm-none-eabi/5.4.1/../../../../arm-none-eabi/lib/armv7e-m/fpu/libg.a(lib_a-memchr.o)
 .ARM.attributes
                0x00000957       0x34 /home/kedou/Project/OpenRE/Tools/gcc-arm-none-eabi-5_4-2016q2/bin/../lib/gcc/arm-none-eabi/5.4.1/../../../../arm-none-eabi/lib/armv7e-m/fpu/libg.a(lib_a-memmove.o)
 .ARM.attributes
                0x0000098b       0x34 /home/kedou/Project/OpenRE/Tools/gcc-arm-none-eabi-5_4-2016q2/bin/../lib/gcc/arm-none-eabi/5.4.1/../../../../arm-none-eabi/lib/armv7e-m/fpu/libg.a(lib_a-memset.o)
 .ARM.attributes
                0x000009bf       0x34 /home/kedou/Project/OpenRE/Tools/gcc-arm-none-eabi-5_4-2016q2/bin/../lib/gcc/arm-none-eabi/5.4.1/../../../../arm-none-eabi/lib/armv7e-m/fpu/libg.a(lib_a-mlock.o)
 .ARM.attributes
                0x000009f3       0x34 /home/kedou/Project/OpenRE/Tools/gcc-arm-none-eabi-5_4-2016q2/bin/../lib/gcc/arm-none-eabi/5.4.1/../../../../arm-none-eabi/lib/armv7e-m/fpu/libg.a(lib_a-mprec.o)
 .ARM.attributes
                0x00000a27       0x34 /home/kedou/Project/OpenRE/Tools/gcc-arm-none-eabi-5_4-2016q2/bin/../lib/gcc/arm-none-eabi/5.4.1/../../../../arm-none-eabi/lib/armv7e-m/fpu/libg.a(lib_a-reallocr.o)
 .ARM.attributes
                0x00000a5b       0x34 /home/kedou/Project/OpenRE/Tools/gcc-arm-none-eabi-5_4-2016q2/bin/../lib/gcc/arm-none-eabi/5.4.1/../../../../arm-none-eabi/lib/armv7e-m/fpu/libg.a(lib_a-sbrkr.o)
 .ARM.attributes
                0x00000a8f       0x34 /home/kedou/Project/OpenRE/Tools/gcc-arm-none-eabi-5_4-2016q2/bin/../lib/gcc/arm-none-eabi/5.4.1/../../../../arm-none-eabi/lib/armv7e-m/fpu/libg.a(lib_a-stdio.o)
 .ARM.attributes
                0x00000ac3       0x34 /home/kedou/Project/OpenRE/Tools/gcc-arm-none-eabi-5_4-2016q2/bin/../lib/gcc/arm-none-eabi/5.4.1/../../../../arm-none-eabi/lib/armv7e-m/fpu/libg.a(lib_a-vfiprintf.o)
 .ARM.attributes
                0x00000af7       0x34 /home/kedou/Project/OpenRE/Tools/gcc-arm-none-eabi-5_4-2016q2/bin/../lib/gcc/arm-none-eabi/5.4.1/../../../../arm-none-eabi/lib/armv7e-m/fpu/libg.a(lib_a-writer.o)
 .ARM.attributes
                0x00000b2b       0x34 /home/kedou/Project/OpenRE/Tools/gcc-arm-none-eabi-5_4-2016q2/bin/../lib/gcc/arm-none-eabi/5.4.1/../../../../arm-none-eabi/lib/armv7e-m/fpu/libg.a(lib_a-callocr.o)
 .ARM.attributes
                0x00000b5f       0x34 /home/kedou/Project/OpenRE/Tools/gcc-arm-none-eabi-5_4-2016q2/bin/../lib/gcc/arm-none-eabi/5.4.1/../../../../arm-none-eabi/lib/armv7e-m/fpu/libg.a(lib_a-closer.o)
 .ARM.attributes
                0x00000b93       0x34 /home/kedou/Project/OpenRE/Tools/gcc-arm-none-eabi-5_4-2016q2/bin/../lib/gcc/arm-none-eabi/5.4.1/../../../../arm-none-eabi/lib/armv7e-m/fpu/libg.a(lib_a-fclose.o)
 .ARM.attributes
                0x00000bc7       0x34 /home/kedou/Project/OpenRE/Tools/gcc-arm-none-eabi-5_4-2016q2/bin/../lib/gcc/arm-none-eabi/5.4.1/../../../../arm-none-eabi/lib/armv7e-m/fpu/libg.a(lib_a-fputwc.o)
 .ARM.attributes
                0x00000bfb       0x34 /home/kedou/Project/OpenRE/Tools/gcc-arm-none-eabi-5_4-2016q2/bin/../lib/gcc/arm-none-eabi/5.4.1/../../../../arm-none-eabi/lib/armv7e-m/fpu/libg.a(lib_a-fstatr.o)
 .ARM.attributes
                0x00000c2f       0x34 /home/kedou/Project/OpenRE/Tools/gcc-arm-none-eabi-5_4-2016q2/bin/../lib/gcc/arm-none-eabi/5.4.1/../../../../arm-none-eabi/lib/armv7e-m/fpu/libg.a(lib_a-isattyr.o)
 .ARM.attributes
                0x00000c63       0x34 /home/kedou/Project/OpenRE/Tools/gcc-arm-none-eabi-5_4-2016q2/bin/../lib/gcc/arm-none-eabi/5.4.1/../../../../arm-none-eabi/lib/armv7e-m/fpu/libg.a(lib_a-lseekr.o)
 .ARM.attributes
                0x00000c97       0x34 /home/kedou/Project/OpenRE/Tools/gcc-arm-none-eabi-5_4-2016q2/bin/../lib/gcc/arm-none-eabi/5.4.1/../../../../arm-none-eabi/lib/armv7e-m/fpu/libg.a(lib_a-readr.o)
 .ARM.attributes
                0x00000ccb       0x34 /home/kedou/Project/OpenRE/Tools/gcc-arm-none-eabi-5_4-2016q2/bin/../lib/gcc/arm-none-eabi/5.4.1/../../../../arm-none-eabi/lib/armv7e-m/fpu/libg.a(lib_a-wbuf.o)
 .ARM.attributes
                0x00000cff       0x34 /home/kedou/Project/OpenRE/Tools/gcc-arm-none-eabi-5_4-2016q2/bin/../lib/gcc/arm-none-eabi/5.4.1/../../../../arm-none-eabi/lib/armv7e-m/fpu/libg.a(lib_a-wcrtomb.o)
 .ARM.attributes
                0x00000d33       0x34 /home/kedou/Project/OpenRE/Tools/gcc-arm-none-eabi-5_4-2016q2/bin/../lib/gcc/arm-none-eabi/5.4.1/../../../../arm-none-eabi/lib/armv7e-m/fpu/libg.a(lib_a-wctomb_r.o)
 .ARM.attributes
                0x00000d67       0x22 /home/kedou/Project/OpenRE/Tools/gcc-arm-none-eabi-5_4-2016q2/bin/../lib/gcc/arm-none-eabi/5.4.1/armv7e-m/fpu/libgcc.a(_arm_addsubdf3.o)
 .ARM.attributes
                0x00000d89       0x22 /home/kedou/Project/OpenRE/Tools/gcc-arm-none-eabi-5_4-2016q2/bin/../lib/gcc/arm-none-eabi/5.4.1/armv7e-m/fpu/libgcc.a(_arm_muldivdf3.o)
 .ARM.attributes
                0x00000dab       0x22 /home/kedou/Project/OpenRE/Tools/gcc-arm-none-eabi-5_4-2016q2/bin/../lib/gcc/arm-none-eabi/5.4.1/armv7e-m/fpu/libgcc.a(_arm_cmpdf2.o)
 .ARM.attributes
                0x00000dcd       0x22 /home/kedou/Project/OpenRE/Tools/gcc-arm-none-eabi-5_4-2016q2/bin/../lib/gcc/arm-none-eabi/5.4.1/armv7e-m/fpu/libgcc.a(_arm_unorddf2.o)
 .ARM.attributes
                0x00000def       0x22 /home/kedou/Project/OpenRE/Tools/gcc-arm-none-eabi-5_4-2016q2/bin/../lib/gcc/arm-none-eabi/5.4.1/armv7e-m/fpu/libgcc.a(_arm_fixdfsi.o)
 .ARM.attributes
                0x00000e11       0x22 /home/kedou/Project/OpenRE/Tools/gcc-arm-none-eabi-5_4-2016q2/bin/../lib/gcc/arm-none-eabi/5.4.1/armv7e-m/fpu/libgcc.a(_aeabi_uldivmod.o)
 .ARM.attributes
                0x00000e33       0x34 /home/kedou/Project/OpenRE/Tools/gcc-arm-none-eabi-5_4-2016q2/bin/../lib/gcc/arm-none-eabi/5.4.1/armv7e-m/fpu/libgcc.a(_udivmoddi4.o)
 .ARM.attributes
                0x00000e67       0x22 /home/kedou/Project/OpenRE/Tools/gcc-arm-none-eabi-5_4-2016q2/bin/../lib/gcc/arm-none-eabi/5.4.1/armv7e-m/fpu/libgcc.a(_dvmd_tls.o)
OUTPUT(stm32f4_Template_NO_RTOS_CONTROL_UNIT_V1.elf elf32-littlearm)

.debug_line     0x00000000     0x6178
 .debug_line    0x00000000       0xe3 ../../../../1_Processor/STM32F4/STM32F4-Discovery_FW_V1.1.0/Libraries/CMSIS/ST/STM32F4xx/Source/Templates/gcc_ride7/startup_stm32f4xx.o
 .debug_line    0x000000e3      0x29f ../../../../1_Processor/STM32F4/STM32F4-Discovery_FW_V1.1.0/Libraries/CMSIS/ST/STM32F4xx/Source/Templates/system_stm32f4xx.o
 .debug_line    0x00000382      0x2dd ../../../../1_Processor/STM32F4/STM32F4-Discovery_FW_V1.1.0/Libraries/STM32F4xx_StdPeriph_Driver/src/misc.o
 .debug_line    0x0000065f      0x429 ../../../../1_Processor/STM32F4/STM32F4-Discovery_FW_V1.1.0/Libraries/STM32F4xx_StdPeriph_Driver/src/stm32f4xx_adc.o
 .debug_line    0x00000a88      0x351 ../../../../1_Processor/STM32F4/STM32F4-Discovery_FW_V1.1.0/Libraries/STM32F4xx_StdPeriph_Driver/src/stm32f4xx_dac.o
 .debug_line    0x00000dd9      0x3b1 ../../../../1_Processor/STM32F4/STM32F4-Discovery_FW_V1.1.0/Libraries/STM32F4xx_StdPeriph_Driver/src/stm32f4xx_dma.o
 .debug_line    0x0000118a      0x306 ../../../../1_Processor/STM32F4/STM32F4-Discovery_FW_V1.1.0/Libraries/STM32F4xx_StdPeriph_Driver/src/stm32f4xx_exti.o
 .debug_line    0x00001490      0x364 ../../../../1_Processor/STM32F4/STM32F4-Discovery_FW_V1.1.0/Libraries/STM32F4xx_StdPeriph_Driver/src/stm32f4xx_gpio.o
 .debug_line    0x000017f4      0x333 ../../../../1_Processor/STM32F4/STM32F4-Discovery_FW_V1.1.0/Libraries/STM32F4xx_StdPeriph_Driver/src/stm32f4xx_pwr.o
 .debug_line    0x00001b27      0x424 ../../../../1_Processor/STM32F4/STM32F4-Discovery_FW_V1.1.0/Libraries/STM32F4xx_StdPeriph_Driver/src/stm32f4xx_rcc.o
 .debug_line    0x00001f4b      0x654 ../../../../1_Processor/STM32F4/STM32F4-Discovery_FW_V1.1.0/Libraries/STM32F4xx_StdPeriph_Driver/src/stm32f4xx_rtc.o
 .debug_line    0x0000259f      0x2e8 ../../../../1_Processor/STM32F4/STM32F4-Discovery_FW_V1.1.0/Libraries/STM32F4xx_StdPeriph_Driver/src/stm32f4xx_syscfg.o
 .debug_line    0x00002887      0x70c ../../../../1_Processor/STM32F4/STM32F4-Discovery_FW_V1.1.0/Libraries/STM32F4xx_StdPeriph_Driver/src/stm32f4xx_tim.o
 .debug_line    0x00002f93      0x427 ../../../../1_Processor/STM32F4/STM32F4-Discovery_FW_V1.1.0/Libraries/STM32F4xx_StdPeriph_Driver/src/stm32f4xx_usart.o
 .debug_line    0x000033ba      0x3d7 ../../../../1_Processor/STM32F4/BSPLIB/adc_dac.o
 .debug_line    0x00003791      0x314 ../../../../1_Processor/STM32F4/BSPLIB/delay.o
 .debug_line    0x00003aa5      0x311 ../../../../1_Processor/STM32F4/BSPLIB/encoder.o
 .debug_line    0x00003db6      0x3b5 ../../../../1_Processor/STM32F4/BSPLIB/i2c.o
 .debug_line    0x0000416b      0x3d2 ../../../../1_Processor/STM32F4/BSPLIB/nvic.o
 .debug_line    0x0000453d      0x367 ../../../../1_Processor/STM32F4/BSPLIB/pwm_in.o
 .debug_line    0x000048a4      0x342 ../../../../1_Processor/STM32F4/BSPLIB/pwm_out.o
 .debug_line    0x00004be6      0x38b ../../../../1_Processor/STM32F4/BSPLIB/rtc.o
 .debug_line    0x00004f71      0x2d3 ../../../../1_Processor/STM32F4/BSPLIB/timer.o
 .debug_line    0x00005244      0x4fd ../../../../1_Processor/STM32F4/BSPLIB/usart.o
 .debug_line    0x00005741      0x236 ../src/main.o
 .debug_line    0x00005977      0x2c1 ../src/stm32f4xx_it.o
 .debug_line    0x00005c38      0x540 ../../../../1_Processor/BoardAbstract/control_unit_v1.o

.debug_info     0x00000000    0x154b3
 .debug_info    0x00000000       0xf4 ../../../../1_Processor/STM32F4/STM32F4-Discovery_FW_V1.1.0/Libraries/CMSIS/ST/STM32F4xx/Source/Templates/gcc_ride7/startup_stm32f4xx.o
 .debug_info    0x000000f4      0x671 ../../../../1_Processor/STM32F4/STM32F4-Discovery_FW_V1.1.0/Libraries/CMSIS/ST/STM32F4xx/Source/Templates/system_stm32f4xx.o
 .debug_info    0x00000765      0x5cc ../../../../1_Processor/STM32F4/STM32F4-Discovery_FW_V1.1.0/Libraries/STM32F4xx_StdPeriph_Driver/src/misc.o
 .debug_info    0x00000d31      0xd30 ../../../../1_Processor/STM32F4/STM32F4-Discovery_FW_V1.1.0/Libraries/STM32F4xx_StdPeriph_Driver/src/stm32f4xx_adc.o
 .debug_info    0x00001a61      0x699 ../../../../1_Processor/STM32F4/STM32F4-Discovery_FW_V1.1.0/Libraries/STM32F4xx_StdPeriph_Driver/src/stm32f4xx_dac.o
 .debug_info    0x000020fa      0x780 ../../../../1_Processor/STM32F4/STM32F4-Discovery_FW_V1.1.0/Libraries/STM32F4xx_StdPeriph_Driver/src/stm32f4xx_dma.o
 .debug_info    0x0000287a      0x37e ../../../../1_Processor/STM32F4/STM32F4-Discovery_FW_V1.1.0/Libraries/STM32F4xx_StdPeriph_Driver/src/stm32f4xx_exti.o
 .debug_info    0x00002bf8      0x76e ../../../../1_Processor/STM32F4/STM32F4-Discovery_FW_V1.1.0/Libraries/STM32F4xx_StdPeriph_Driver/src/stm32f4xx_gpio.o
 .debug_info    0x00003366      0x5c5 ../../../../1_Processor/STM32F4/STM32F4-Discovery_FW_V1.1.0/Libraries/STM32F4xx_StdPeriph_Driver/src/stm32f4xx_pwr.o
 .debug_info    0x0000392b      0xda1 ../../../../1_Processor/STM32F4/STM32F4-Discovery_FW_V1.1.0/Libraries/STM32F4xx_StdPeriph_Driver/src/stm32f4xx_rcc.o
 .debug_info    0x000046cc     0x14f7 ../../../../1_Processor/STM32F4/STM32F4-Discovery_FW_V1.1.0/Libraries/STM32F4xx_StdPeriph_Driver/src/stm32f4xx_rtc.o
 .debug_info    0x00005bc3      0x2e3 ../../../../1_Processor/STM32F4/STM32F4-Discovery_FW_V1.1.0/Libraries/STM32F4xx_StdPeriph_Driver/src/stm32f4xx_syscfg.o
 .debug_info    0x00005ea6     0x21bf ../../../../1_Processor/STM32F4/STM32F4-Discovery_FW_V1.1.0/Libraries/STM32F4xx_StdPeriph_Driver/src/stm32f4xx_tim.o
 .debug_info    0x00008065      0xb67 ../../../../1_Processor/STM32F4/STM32F4-Discovery_FW_V1.1.0/Libraries/STM32F4xx_StdPeriph_Driver/src/stm32f4xx_usart.o
 .debug_info    0x00008bcc     0x1085 ../../../../1_Processor/STM32F4/BSPLIB/adc_dac.o
 .debug_info    0x00009c51      0x9a2 ../../../../1_Processor/STM32F4/BSPLIB/delay.o
 .debug_info    0x0000a5f3      0xaff ../../../../1_Processor/STM32F4/BSPLIB/encoder.o
 .debug_info    0x0000b0f2     0x14f1 ../../../../1_Processor/STM32F4/BSPLIB/i2c.o
 .debug_info    0x0000c5e3      0xd0c ../../../../1_Processor/STM32F4/BSPLIB/nvic.o
 .debug_info    0x0000d2ef      0x8d0 ../../../../1_Processor/STM32F4/BSPLIB/pwm_in.o
 .debug_info    0x0000dbbf      0xf4d ../../../../1_Processor/STM32F4/BSPLIB/pwm_out.o
 .debug_info    0x0000eb0c      0xf11 ../../../../1_Processor/STM32F4/BSPLIB/rtc.o
 .debug_info    0x0000fa1d      0x744 ../../../../1_Processor/STM32F4/BSPLIB/timer.o
 .debug_info    0x00010161     0x152e ../../../../1_Processor/STM32F4/BSPLIB/usart.o
 .debug_info    0x0001168f      0xac5 ../src/main.o
 .debug_info    0x00012154      0xd97 ../src/stm32f4xx_it.o
 .debug_info    0x00012eeb     0x25c8 ../../../../1_Processor/BoardAbstract/control_unit_v1.o

.debug_abbrev   0x00000000     0x36a1
 .debug_abbrev  0x00000000       0x12 ../../../../1_Processor/STM32F4/STM32F4-Discovery_FW_V1.1.0/Libraries/CMSIS/ST/STM32F4xx/Source/Templates/gcc_ride7/startup_stm32f4xx.o
 .debug_abbrev  0x00000012      0x161 ../../../../1_Processor/STM32F4/STM32F4-Discovery_FW_V1.1.0/Libraries/CMSIS/ST/STM32F4xx/Source/Templates/system_stm32f4xx.o
 .debug_abbrev  0x00000173      0x154 ../../../../1_Processor/STM32F4/STM32F4-Discovery_FW_V1.1.0/Libraries/STM32F4xx_StdPeriph_Driver/src/misc.o
 .debug_abbrev  0x000002c7      0x200 ../../../../1_Processor/STM32F4/STM32F4-Discovery_FW_V1.1.0/Libraries/STM32F4xx_StdPeriph_Driver/src/stm32f4xx_adc.o
 .debug_abbrev  0x000004c7      0x262 ../../../../1_Processor/STM32F4/STM32F4-Discovery_FW_V1.1.0/Libraries/STM32F4xx_StdPeriph_Driver/src/stm32f4xx_dac.o
 .debug_abbrev  0x00000729      0x1ad ../../../../1_Processor/STM32F4/STM32F4-Discovery_FW_V1.1.0/Libraries/STM32F4xx_StdPeriph_Driver/src/stm32f4xx_dma.o
 .debug_abbrev  0x000008d6      0x1f5 ../../../../1_Processor/STM32F4/STM32F4-Discovery_FW_V1.1.0/Libraries/STM32F4xx_StdPeriph_Driver/src/stm32f4xx_exti.o
 .debug_abbrev  0x00000acb      0x21a ../../../../1_Processor/STM32F4/STM32F4-Discovery_FW_V1.1.0/Libraries/STM32F4xx_StdPeriph_Driver/src/stm32f4xx_gpio.o
 .debug_abbrev  0x00000ce5      0x1dc ../../../../1_Processor/STM32F4/STM32F4-Discovery_FW_V1.1.0/Libraries/STM32F4xx_StdPeriph_Driver/src/stm32f4xx_pwr.o
 .debug_abbrev  0x00000ec1      0x243 ../../../../1_Processor/STM32F4/STM32F4-Discovery_FW_V1.1.0/Libraries/STM32F4xx_StdPeriph_Driver/src/stm32f4xx_rcc.o
 .debug_abbrev  0x00001104      0x264 ../../../../1_Processor/STM32F4/STM32F4-Discovery_FW_V1.1.0/Libraries/STM32F4xx_StdPeriph_Driver/src/stm32f4xx_rtc.o
 .debug_abbrev  0x00001368      0x17f ../../../../1_Processor/STM32F4/STM32F4-Discovery_FW_V1.1.0/Libraries/STM32F4xx_StdPeriph_Driver/src/stm32f4xx_syscfg.o
 .debug_abbrev  0x000014e7      0x2cf ../../../../1_Processor/STM32F4/STM32F4-Discovery_FW_V1.1.0/Libraries/STM32F4xx_StdPeriph_Driver/src/stm32f4xx_tim.o
 .debug_abbrev  0x000017b6      0x200 ../../../../1_Processor/STM32F4/STM32F4-Discovery_FW_V1.1.0/Libraries/STM32F4xx_StdPeriph_Driver/src/stm32f4xx_usart.o
 .debug_abbrev  0x000019b6      0x207 ../../../../1_Processor/STM32F4/BSPLIB/adc_dac.o
 .debug_abbrev  0x00001bbd      0x1ff ../../../../1_Processor/STM32F4/BSPLIB/delay.o
 .debug_abbrev  0x00001dbc      0x189 ../../../../1_Processor/STM32F4/BSPLIB/encoder.o
 .debug_abbrev  0x00001f45      0x33a ../../../../1_Processor/STM32F4/BSPLIB/i2c.o
 .debug_abbrev  0x0000227f      0x132 ../../../../1_Processor/STM32F4/BSPLIB/nvic.o
 .debug_abbrev  0x000023b1      0x1a4 ../../../../1_Processor/STM32F4/BSPLIB/pwm_in.o
 .debug_abbrev  0x00002555      0x1a7 ../../../../1_Processor/STM32F4/BSPLIB/pwm_out.o
 .debug_abbrev  0x000026fc      0x26b ../../../../1_Processor/STM32F4/BSPLIB/rtc.o
 .debug_abbrev  0x00002967      0x14f ../../../../1_Processor/STM32F4/BSPLIB/timer.o
 .debug_abbrev  0x00002ab6      0x3a7 ../../../../1_Processor/STM32F4/BSPLIB/usart.o
 .debug_abbrev  0x00002e5d      0x1f9 ../src/main.o
 .debug_abbrev  0x00003056      0x20c ../src/stm32f4xx_it.o
 .debug_abbrev  0x00003262      0x43f ../../../../1_Processor/BoardAbstract/control_unit_v1.o

.debug_aranges  0x00000000      0x378
 .debug_aranges
                0x00000000       0x28 ../../../../1_Processor/STM32F4/STM32F4-Discovery_FW_V1.1.0/Libraries/CMSIS/ST/STM32F4xx/Source/Templates/gcc_ride7/startup_stm32f4xx.o
 .debug_aranges
                0x00000028       0x20 ../../../../1_Processor/STM32F4/STM32F4-Discovery_FW_V1.1.0/Libraries/CMSIS/ST/STM32F4xx/Source/Templates/system_stm32f4xx.o
 .debug_aranges
                0x00000048       0x20 ../../../../1_Processor/STM32F4/STM32F4-Discovery_FW_V1.1.0/Libraries/STM32F4xx_StdPeriph_Driver/src/misc.o
 .debug_aranges
                0x00000068       0x20 ../../../../1_Processor/STM32F4/STM32F4-Discovery_FW_V1.1.0/Libraries/STM32F4xx_StdPeriph_Driver/src/stm32f4xx_adc.o
 .debug_aranges
                0x00000088       0x20 ../../../../1_Processor/STM32F4/STM32F4-Discovery_FW_V1.1.0/Libraries/STM32F4xx_StdPeriph_Driver/src/stm32f4xx_dac.o
 .debug_aranges
                0x000000a8       0x20 ../../../../1_Processor/STM32F4/STM32F4-Discovery_FW_V1.1.0/Libraries/STM32F4xx_StdPeriph_Driver/src/stm32f4xx_dma.o
 .debug_aranges
                0x000000c8       0x20 ../../../../1_Processor/STM32F4/STM32F4-Discovery_FW_V1.1.0/Libraries/STM32F4xx_StdPeriph_Driver/src/stm32f4xx_exti.o
 .debug_aranges
                0x000000e8       0x20 ../../../../1_Processor/STM32F4/STM32F4-Discovery_FW_V1.1.0/Libraries/STM32F4xx_StdPeriph_Driver/src/stm32f4xx_gpio.o
 .debug_aranges
                0x00000108       0x20 ../../../../1_Processor/STM32F4/STM32F4-Discovery_FW_V1.1.0/Libraries/STM32F4xx_StdPeriph_Driver/src/stm32f4xx_pwr.o
 .debug_aranges
                0x00000128       0x20 ../../../../1_Processor/STM32F4/STM32F4-Discovery_FW_V1.1.0/Libraries/STM32F4xx_StdPeriph_Driver/src/stm32f4xx_rcc.o
 .debug_aranges
                0x00000148       0x20 ../../../../1_Processor/STM32F4/STM32F4-Discovery_FW_V1.1.0/Libraries/STM32F4xx_StdPeriph_Driver/src/stm32f4xx_rtc.o
 .debug_aranges
                0x00000168       0x20 ../../../../1_Processor/STM32F4/STM32F4-Discovery_FW_V1.1.0/Libraries/STM32F4xx_StdPeriph_Driver/src/stm32f4xx_syscfg.o
 .debug_aranges
                0x00000188       0x20 ../../../../1_Processor/STM32F4/STM32F4-Discovery_FW_V1.1.0/Libraries/STM32F4xx_StdPeriph_Driver/src/stm32f4xx_tim.o
 .debug_aranges
                0x000001a8       0x20 ../../../../1_Processor/STM32F4/STM32F4-Discovery_FW_V1.1.0/Libraries/STM32F4xx_StdPeriph_Driver/src/stm32f4xx_usart.o
 .debug_aranges
                0x000001c8       0x20 ../../../../1_Processor/STM32F4/BSPLIB/adc_dac.o
 .debug_aranges
                0x000001e8       0x20 ../../../../1_Processor/STM32F4/BSPLIB/delay.o
 .debug_aranges
                0x00000208       0x20 ../../../../1_Processor/STM32F4/BSPLIB/encoder.o
 .debug_aranges
                0x00000228       0x20 ../../../../1_Processor/STM32F4/BSPLIB/i2c.o
 .debug_aranges
                0x00000248       0x20 ../../../../1_Processor/STM32F4/BSPLIB/nvic.o
 .debug_aranges
                0x00000268       0x20 ../../../../1_Processor/STM32F4/BSPLIB/pwm_in.o
 .debug_aranges
                0x00000288       0x20 ../../../../1_Processor/STM32F4/BSPLIB/pwm_out.o
 .debug_aranges
                0x000002a8       0x20 ../../../../1_Processor/STM32F4/BSPLIB/rtc.o
 .debug_aranges
                0x000002c8       0x20 ../../../../1_Processor/STM32F4/BSPLIB/timer.o
 .debug_aranges
                0x000002e8       0x20 ../../../../1_Processor/STM32F4/BSPLIB/usart.o
 .debug_aranges
                0x00000308       0x28 ../src/main.o
 .debug_aranges
                0x00000330       0x20 ../src/stm32f4xx_it.o
 .debug_aranges
                0x00000350       0x28 ../../../../1_Processor/BoardAbstract/control_unit_v1.o

.debug_ranges   0x00000000      0x108
 .debug_ranges  0x00000000       0x20 ../../../../1_Processor/STM32F4/STM32F4-Discovery_FW_V1.1.0/Libraries/CMSIS/ST/STM32F4xx/Source/Templates/gcc_ride7/startup_stm32f4xx.o
 .debug_ranges  0x00000020       0x18 ../../../../1_Processor/STM32F4/STM32F4-Discovery_FW_V1.1.0/Libraries/CMSIS/ST/STM32F4xx/Source/Templates/system_stm32f4xx.o
 .debug_ranges  0x00000038       0x38 ../../../../1_Processor/STM32F4/STM32F4-Discovery_FW_V1.1.0/Libraries/STM32F4xx_StdPeriph_Driver/src/stm32f4xx_tim.o
 .debug_ranges  0x00000070       0x38 ../../../../1_Processor/STM32F4/BSPLIB/usart.o
 .debug_ranges  0x000000a8       0x18 ../src/main.o
 .debug_ranges  0x000000c0       0x48 ../../../../1_Processor/BoardAbstract/control_unit_v1.o

.debug_loc      0x00000000     0xa025
 .debug_loc     0x00000000       0xfe ../../../../1_Processor/STM32F4/STM32F4-Discovery_FW_V1.1.0/Libraries/CMSIS/ST/STM32F4xx/Source/Templates/system_stm32f4xx.o
 .debug_loc     0x000000fe      0x167 ../../../../1_Processor/STM32F4/STM32F4-Discovery_FW_V1.1.0/Libraries/STM32F4xx_StdPeriph_Driver/src/misc.o
 .debug_loc     0x00000265      0xaf9 ../../../../1_Processor/STM32F4/STM32F4-Discovery_FW_V1.1.0/Libraries/STM32F4xx_StdPeriph_Driver/src/stm32f4xx_adc.o
 .debug_loc     0x00000d5e      0x484 ../../../../1_Processor/STM32F4/STM32F4-Discovery_FW_V1.1.0/Libraries/STM32F4xx_StdPeriph_Driver/src/stm32f4xx_dac.o
 .debug_loc     0x000011e2      0x4bb ../../../../1_Processor/STM32F4/STM32F4-Discovery_FW_V1.1.0/Libraries/STM32F4xx_StdPeriph_Driver/src/stm32f4xx_dma.o
 .debug_loc     0x0000169d      0x1a8 ../../../../1_Processor/STM32F4/STM32F4-Discovery_FW_V1.1.0/Libraries/STM32F4xx_StdPeriph_Driver/src/stm32f4xx_exti.o
 .debug_loc     0x00001845      0x3b0 ../../../../1_Processor/STM32F4/STM32F4-Discovery_FW_V1.1.0/Libraries/STM32F4xx_StdPeriph_Driver/src/stm32f4xx_gpio.o
 .debug_loc     0x00001bf5      0x13d ../../../../1_Processor/STM32F4/STM32F4-Discovery_FW_V1.1.0/Libraries/STM32F4xx_StdPeriph_Driver/src/stm32f4xx_pwr.o
 .debug_loc     0x00001d32      0xa55 ../../../../1_Processor/STM32F4/STM32F4-Discovery_FW_V1.1.0/Libraries/STM32F4xx_StdPeriph_Driver/src/stm32f4xx_rcc.o
 .debug_loc     0x00002787     0x12d1 ../../../../1_Processor/STM32F4/STM32F4-Discovery_FW_V1.1.0/Libraries/STM32F4xx_StdPeriph_Driver/src/stm32f4xx_rtc.o
 .debug_loc     0x00003a58       0xf2 ../../../../1_Processor/STM32F4/STM32F4-Discovery_FW_V1.1.0/Libraries/STM32F4xx_StdPeriph_Driver/src/stm32f4xx_syscfg.o
 .debug_loc     0x00003b4a     0x1d2c ../../../../1_Processor/STM32F4/STM32F4-Discovery_FW_V1.1.0/Libraries/STM32F4xx_StdPeriph_Driver/src/stm32f4xx_tim.o
 .debug_loc     0x00005876      0x7f8 ../../../../1_Processor/STM32F4/STM32F4-Discovery_FW_V1.1.0/Libraries/STM32F4xx_StdPeriph_Driver/src/stm32f4xx_usart.o
 .debug_loc     0x0000606e      0x34e ../../../../1_Processor/STM32F4/BSPLIB/adc_dac.o
 .debug_loc     0x000063bc      0x112 ../../../../1_Processor/STM32F4/BSPLIB/delay.o
 .debug_loc     0x000064ce       0x85 ../../../../1_Processor/STM32F4/BSPLIB/encoder.o
 .debug_loc     0x00006553      0x815 ../../../../1_Processor/STM32F4/BSPLIB/i2c.o
 .debug_loc     0x00006d68      0x554 ../../../../1_Processor/STM32F4/BSPLIB/nvic.o
 .debug_loc     0x000072bc      0x1a7 ../../../../1_Processor/STM32F4/BSPLIB/pwm_in.o
 .debug_loc     0x00007463      0x53c ../../../../1_Processor/STM32F4/BSPLIB/pwm_out.o
 .debug_loc     0x0000799f      0x647 ../../../../1_Processor/STM32F4/BSPLIB/rtc.o
 .debug_loc     0x00007fe6       0x9d ../../../../1_Processor/STM32F4/BSPLIB/timer.o
 .debug_loc     0x00008083      0x868 ../../../../1_Processor/STM32F4/BSPLIB/usart.o
 .debug_loc     0x000088eb       0x85 ../src/main.o
 .debug_loc     0x00008970       0x38 ../src/stm32f4xx_it.o
 .debug_loc     0x000089a8     0x167d ../../../../1_Processor/BoardAbstract/control_unit_v1.o

.debug_str      0x00000000     0x5b67
 .debug_str     0x00000000      0x40b ../../../../1_Processor/STM32F4/STM32F4-Discovery_FW_V1.1.0/Libraries/CMSIS/ST/STM32F4xx/Source/Templates/system_stm32f4xx.o
                                0x47f (size before relaxing)
 .debug_str     0x0000040b      0x20f ../../../../1_Processor/STM32F4/STM32F4-Discovery_FW_V1.1.0/Libraries/STM32F4xx_StdPeriph_Driver/src/misc.o
                                0x498 (size before relaxing)
 .debug_str     0x0000061a      0x676 ../../../../1_Processor/STM32F4/STM32F4-Discovery_FW_V1.1.0/Libraries/STM32F4xx_StdPeriph_Driver/src/stm32f4xx_adc.o
                                0x8c6 (size before relaxing)
 .debug_str     0x00000c90      0x28b ../../../../1_Processor/STM32F4/STM32F4-Discovery_FW_V1.1.0/Libraries/STM32F4xx_StdPeriph_Driver/src/stm32f4xx_dac.o
                                0x507 (size before relaxing)
 .debug_str     0x00000f1b      0x3a2 ../../../../1_Processor/STM32F4/STM32F4-Discovery_FW_V1.1.0/Libraries/STM32F4xx_StdPeriph_Driver/src/stm32f4xx_dma.o
                                0x5fe (size before relaxing)
 .debug_str     0x000012bd      0x1ea ../../../../1_Processor/STM32F4/STM32F4-Discovery_FW_V1.1.0/Libraries/STM32F4xx_StdPeriph_Driver/src/stm32f4xx_exti.o
                                0x414 (size before relaxing)
 .debug_str     0x000014a7      0x301 ../../../../1_Processor/STM32F4/STM32F4-Discovery_FW_V1.1.0/Libraries/STM32F4xx_StdPeriph_Driver/src/stm32f4xx_gpio.o
                                0x584 (size before relaxing)
 .debug_str     0x000017a8      0x1a7 ../../../../1_Processor/STM32F4/STM32F4-Discovery_FW_V1.1.0/Libraries/STM32F4xx_StdPeriph_Driver/src/stm32f4xx_pwr.o
                                0x472 (size before relaxing)
 .debug_str     0x0000194f      0x544 ../../../../1_Processor/STM32F4/STM32F4-Discovery_FW_V1.1.0/Libraries/STM32F4xx_StdPeriph_Driver/src/stm32f4xx_rcc.o
                                0x91a (size before relaxing)
 .debug_str     0x00001e93      0x991 ../../../../1_Processor/STM32F4/STM32F4-Discovery_FW_V1.1.0/Libraries/STM32F4xx_StdPeriph_Driver/src/stm32f4xx_rtc.o
                                0xc12 (size before relaxing)
 .debug_str     0x00002824      0x18f ../../../../1_Processor/STM32F4/STM32F4-Discovery_FW_V1.1.0/Libraries/STM32F4xx_StdPeriph_Driver/src/stm32f4xx_syscfg.o
                                0x3d5 (size before relaxing)
 .debug_str     0x000029b3      0xb70 ../../../../1_Processor/STM32F4/STM32F4-Discovery_FW_V1.1.0/Libraries/STM32F4xx_StdPeriph_Driver/src/stm32f4xx_tim.o
                                0xead (size before relaxing)
 .debug_str     0x00003523      0x443 ../../../../1_Processor/STM32F4/STM32F4-Discovery_FW_V1.1.0/Libraries/STM32F4xx_StdPeriph_Driver/src/stm32f4xx_usart.o
                                0x799 (size before relaxing)
 .debug_str     0x00003966      0x132 ../../../../1_Processor/STM32F4/BSPLIB/adc_dac.o
                                0x91f (size before relaxing)
 .debug_str     0x00003a98      0x5fc ../../../../1_Processor/STM32F4/BSPLIB/delay.o
                                0xaa1 (size before relaxing)
 .debug_str     0x00004094       0xa1 ../../../../1_Processor/STM32F4/BSPLIB/encoder.o
                                0x62d (size before relaxing)
 .debug_str     0x00004135      0x1e9 ../../../../1_Processor/STM32F4/BSPLIB/i2c.o
                                0x626 (size before relaxing)
 .debug_str     0x0000431e      0x342 ../../../../1_Processor/STM32F4/BSPLIB/nvic.o
                                0xaf6 (size before relaxing)
 .debug_str     0x00004660       0xf6 ../../../../1_Processor/STM32F4/BSPLIB/pwm_in.o
                                0x688 (size before relaxing)
 .debug_str     0x00004756      0x233 ../../../../1_Processor/STM32F4/BSPLIB/pwm_out.o
                                0x8f0 (size before relaxing)
 .debug_str     0x00004989      0x197 ../../../../1_Processor/STM32F4/BSPLIB/rtc.o
                                0xd22 (size before relaxing)
 .debug_str     0x00004b20       0x45 ../../../../1_Processor/STM32F4/BSPLIB/timer.o
                                0x57a (size before relaxing)
 .debug_str     0x00004b65      0x2a7 ../../../../1_Processor/STM32F4/BSPLIB/usart.o
                                0x921 (size before relaxing)
 .debug_str     0x00004e0c      0xb2a ../src/main.o
                                0xc87 (size before relaxing)
 .debug_str     0x00005936       0x69 ../src/stm32f4xx_it.o
                                0xdba (size before relaxing)
 .debug_str     0x0000599f      0x1c8 ../../../../1_Processor/BoardAbstract/control_unit_v1.o
                               0x1347 (size before relaxing)

.comment        0x00000000       0x6e
 .comment       0x00000000       0x6e ../../../../1_Processor/STM32F4/STM32F4-Discovery_FW_V1.1.0/Libraries/CMSIS/ST/STM32F4xx/Source/Templates/system_stm32f4xx.o
                                 0x6f (size before relaxing)
 .comment       0x0000006e       0x6f ../../../../1_Processor/STM32F4/STM32F4-Discovery_FW_V1.1.0/Libraries/STM32F4xx_StdPeriph_Driver/src/misc.o
 .comment       0x0000006e       0x6f ../../../../1_Processor/STM32F4/STM32F4-Discovery_FW_V1.1.0/Libraries/STM32F4xx_StdPeriph_Driver/src/stm32f4xx_adc.o
 .comment       0x0000006e       0x6f ../../../../1_Processor/STM32F4/STM32F4-Discovery_FW_V1.1.0/Libraries/STM32F4xx_StdPeriph_Driver/src/stm32f4xx_dac.o
 .comment       0x0000006e       0x6f ../../../../1_Processor/STM32F4/STM32F4-Discovery_FW_V1.1.0/Libraries/STM32F4xx_StdPeriph_Driver/src/stm32f4xx_dma.o
 .comment       0x0000006e       0x6f ../../../../1_Processor/STM32F4/STM32F4-Discovery_FW_V1.1.0/Libraries/STM32F4xx_StdPeriph_Driver/src/stm32f4xx_exti.o
 .comment       0x0000006e       0x6f ../../../../1_Processor/STM32F4/STM32F4-Discovery_FW_V1.1.0/Libraries/STM32F4xx_StdPeriph_Driver/src/stm32f4xx_gpio.o
 .comment       0x0000006e       0x6f ../../../../1_Processor/STM32F4/STM32F4-Discovery_FW_V1.1.0/Libraries/STM32F4xx_StdPeriph_Driver/src/stm32f4xx_pwr.o
 .comment       0x0000006e       0x6f ../../../../1_Processor/STM32F4/STM32F4-Discovery_FW_V1.1.0/Libraries/STM32F4xx_StdPeriph_Driver/src/stm32f4xx_rcc.o
 .comment       0x0000006e       0x6f ../../../../1_Processor/STM32F4/STM32F4-Discovery_FW_V1.1.0/Libraries/STM32F4xx_StdPeriph_Driver/src/stm32f4xx_rtc.o
 .comment       0x0000006e       0x6f ../../../../1_Processor/STM32F4/STM32F4-Discovery_FW_V1.1.0/Libraries/STM32F4xx_StdPeriph_Driver/src/stm32f4xx_syscfg.o
 .comment       0x0000006e       0x6f ../../../../1_Processor/STM32F4/STM32F4-Discovery_FW_V1.1.0/Libraries/STM32F4xx_StdPeriph_Driver/src/stm32f4xx_tim.o
 .comment       0x0000006e       0x6f ../../../../1_Processor/STM32F4/STM32F4-Discovery_FW_V1.1.0/Libraries/STM32F4xx_StdPeriph_Driver/src/stm32f4xx_usart.o
 .comment       0x0000006e       0x6f ../../../../1_Processor/STM32F4/BSPLIB/adc_dac.o
 .comment       0x0000006e       0x6f ../../../../1_Processor/STM32F4/BSPLIB/delay.o
 .comment       0x0000006e       0x6f ../../../../1_Processor/STM32F4/BSPLIB/encoder.o
 .comment       0x0000006e       0x6f ../../../../1_Processor/STM32F4/BSPLIB/i2c.o
 .comment       0x0000006e       0x6f ../../../../1_Processor/STM32F4/BSPLIB/nvic.o
 .comment       0x0000006e       0x6f ../../../../1_Processor/STM32F4/BSPLIB/pwm_in.o
 .comment       0x0000006e       0x6f ../../../../1_Processor/STM32F4/BSPLIB/pwm_out.o
 .comment       0x0000006e       0x6f ../../../../1_Processor/STM32F4/BSPLIB/rtc.o
 .comment       0x0000006e       0x6f ../../../../1_Processor/STM32F4/BSPLIB/timer.o
 .comment       0x0000006e       0x6f ../../../../1_Processor/STM32F4/BSPLIB/usart.o
 .comment       0x0000006e       0x6f ../src/main.o
 .comment       0x0000006e       0x6f ../src/stm32f4xx_it.o
 .comment       0x0000006e       0x6f ../../../../1_Processor/BoardAbstract/control_unit_v1.o

.debug_frame    0x00000000     0x39b0
 .debug_frame   0x00000000       0x3c ../../../../1_Processor/STM32F4/STM32F4-Discovery_FW_V1.1.0/Libraries/CMSIS/ST/STM32F4xx/Source/Templates/system_stm32f4xx.o
 .debug_frame   0x0000003c       0x6c ../../../../1_Processor/STM32F4/STM32F4-Discovery_FW_V1.1.0/Libraries/STM32F4xx_StdPeriph_Driver/src/misc.o
 .debug_frame   0x000000a8      0x2b4 ../../../../1_Processor/STM32F4/STM32F4-Discovery_FW_V1.1.0/Libraries/STM32F4xx_StdPeriph_Driver/src/stm32f4xx_adc.o
 .debug_frame   0x0000035c      0x150 ../../../../1_Processor/STM32F4/STM32F4-Discovery_FW_V1.1.0/Libraries/STM32F4xx_StdPeriph_Driver/src/stm32f4xx_dac.o
 .debug_frame   0x000004ac      0x160 ../../../../1_Processor/STM32F4/STM32F4-Discovery_FW_V1.1.0/Libraries/STM32F4xx_StdPeriph_Driver/src/stm32f4xx_dma.o
 .debug_frame   0x0000060c       0x9c ../../../../1_Processor/STM32F4/STM32F4-Discovery_FW_V1.1.0/Libraries/STM32F4xx_StdPeriph_Driver/src/stm32f4xx_exti.o
 .debug_frame   0x000006a8      0x124 ../../../../1_Processor/STM32F4/STM32F4-Discovery_FW_V1.1.0/Libraries/STM32F4xx_StdPeriph_Driver/src/stm32f4xx_gpio.o
 .debug_frame   0x000007cc       0xdc ../../../../1_Processor/STM32F4/STM32F4-Discovery_FW_V1.1.0/Libraries/STM32F4xx_StdPeriph_Driver/src/stm32f4xx_pwr.o
 .debug_frame   0x000008a8      0x2e8 ../../../../1_Processor/STM32F4/STM32F4-Discovery_FW_V1.1.0/Libraries/STM32F4xx_StdPeriph_Driver/src/stm32f4xx_rcc.o
 .debug_frame   0x00000b90      0x4a0 ../../../../1_Processor/STM32F4/STM32F4-Discovery_FW_V1.1.0/Libraries/STM32F4xx_StdPeriph_Driver/src/stm32f4xx_rtc.o
 .debug_frame   0x00001030       0x84 ../../../../1_Processor/STM32F4/STM32F4-Discovery_FW_V1.1.0/Libraries/STM32F4xx_StdPeriph_Driver/src/stm32f4xx_syscfg.o
 .debug_frame   0x000010b4      0x6c8 ../../../../1_Processor/STM32F4/STM32F4-Discovery_FW_V1.1.0/Libraries/STM32F4xx_StdPeriph_Driver/src/stm32f4xx_tim.o
 .debug_frame   0x0000177c      0x220 ../../../../1_Processor/STM32F4/STM32F4-Discovery_FW_V1.1.0/Libraries/STM32F4xx_StdPeriph_Driver/src/stm32f4xx_usart.o
 .debug_frame   0x0000199c       0x90 ../../../../1_Processor/STM32F4/BSPLIB/adc_dac.o
 .debug_frame   0x00001a2c       0xa0 ../../../../1_Processor/STM32F4/BSPLIB/delay.o
 .debug_frame   0x00001acc       0x78 ../../../../1_Processor/STM32F4/BSPLIB/encoder.o
 .debug_frame   0x00001b44      0x230 ../../../../1_Processor/STM32F4/BSPLIB/i2c.o
 .debug_frame   0x00001d74      0x2f8 ../../../../1_Processor/STM32F4/BSPLIB/nvic.o
 .debug_frame   0x0000206c       0xe4 ../../../../1_Processor/STM32F4/BSPLIB/pwm_in.o
 .debug_frame   0x00002150      0x18c ../../../../1_Processor/STM32F4/BSPLIB/pwm_out.o
 .debug_frame   0x000022dc      0x150 ../../../../1_Processor/STM32F4/BSPLIB/rtc.o
 .debug_frame   0x0000242c       0x30 ../../../../1_Processor/STM32F4/BSPLIB/timer.o
 .debug_frame   0x0000245c      0x1c8 ../../../../1_Processor/STM32F4/BSPLIB/usart.o
 .debug_frame   0x00002624       0x68 ../src/main.o
 .debug_frame   0x0000268c       0x40 ../src/stm32f4xx_it.o
 .debug_frame   0x000026cc      0x45c ../../../../1_Processor/BoardAbstract/control_unit_v1.o
 .debug_frame   0x00002b28       0x74 /home/kedou/Project/OpenRE/Tools/gcc-arm-none-eabi-5_4-2016q2/bin/../lib/gcc/arm-none-eabi/5.4.1/../../../../arm-none-eabi/lib/armv7e-m/fpu/libg.a(lib_a-printf.o)
 .debug_frame   0x00002b9c       0x48 /home/kedou/Project/OpenRE/Tools/gcc-arm-none-eabi-5_4-2016q2/bin/../lib/gcc/arm-none-eabi/5.4.1/../../../../arm-none-eabi/lib/armv7e-m/fpu/libg.a(lib_a-puts.o)
 .debug_frame   0x00002be4       0x58 /home/kedou/Project/OpenRE/Tools/gcc-arm-none-eabi-5_4-2016q2/bin/../lib/gcc/arm-none-eabi/5.4.1/../../../../arm-none-eabi/lib/armv7e-m/fpu/libg.a(lib_a-reent.o)
 .debug_frame   0x00002c3c       0x88 /home/kedou/Project/OpenRE/Tools/gcc-arm-none-eabi-5_4-2016q2/bin/../lib/gcc/arm-none-eabi/5.4.1/../../../../arm-none-eabi/lib/armv7e-m/fpu/libg.a(lib_a-vfprintf.o)
 .debug_frame   0x00002cc4       0x2c /home/kedou/Project/OpenRE/Tools/gcc-arm-none-eabi-5_4-2016q2/bin/../lib/gcc/arm-none-eabi/5.4.1/../../../../arm-none-eabi/lib/armv7e-m/fpu/libg.a(lib_a-wsetup.o)
 .debug_frame   0x00002cf0       0x88 /home/kedou/Project/OpenRE/Tools/gcc-arm-none-eabi-5_4-2016q2/bin/../lib/gcc/arm-none-eabi/5.4.1/../../../../arm-none-eabi/lib/armv7e-m/fpu/libg.a(lib_a-dtoa.o)
 .debug_frame   0x00002d78       0x6c /home/kedou/Project/OpenRE/Tools/gcc-arm-none-eabi-5_4-2016q2/bin/../lib/gcc/arm-none-eabi/5.4.1/../../../../arm-none-eabi/lib/armv7e-m/fpu/libg.a(lib_a-fflush.o)
 .debug_frame   0x00002de4      0x124 /home/kedou/Project/OpenRE/Tools/gcc-arm-none-eabi-5_4-2016q2/bin/../lib/gcc/arm-none-eabi/5.4.1/../../../../arm-none-eabi/lib/armv7e-m/fpu/libg.a(lib_a-findfp.o)
 .debug_frame   0x00002f08       0x74 /home/kedou/Project/OpenRE/Tools/gcc-arm-none-eabi-5_4-2016q2/bin/../lib/gcc/arm-none-eabi/5.4.1/../../../../arm-none-eabi/lib/armv7e-m/fpu/libg.a(lib_a-freer.o)
 .debug_frame   0x00002f7c       0x68 /home/kedou/Project/OpenRE/Tools/gcc-arm-none-eabi-5_4-2016q2/bin/../lib/gcc/arm-none-eabi/5.4.1/../../../../arm-none-eabi/lib/armv7e-m/fpu/libg.a(lib_a-fvwrite.o)
 .debug_frame   0x00002fe4       0x54 /home/kedou/Project/OpenRE/Tools/gcc-arm-none-eabi-5_4-2016q2/bin/../lib/gcc/arm-none-eabi/5.4.1/../../../../arm-none-eabi/lib/armv7e-m/fpu/libg.a(lib_a-fwalk.o)
 .debug_frame   0x00003038       0x9c /home/kedou/Project/OpenRE/Tools/gcc-arm-none-eabi-5_4-2016q2/bin/../lib/gcc/arm-none-eabi/5.4.1/../../../../arm-none-eabi/lib/armv7e-m/fpu/libg.a(lib_a-locale.o)
 .debug_frame   0x000030d4       0x68 /home/kedou/Project/OpenRE/Tools/gcc-arm-none-eabi-5_4-2016q2/bin/../lib/gcc/arm-none-eabi/5.4.1/../../../../arm-none-eabi/lib/armv7e-m/fpu/libg.a(lib_a-makebuf.o)
 .debug_frame   0x0000313c       0x58 /home/kedou/Project/OpenRE/Tools/gcc-arm-none-eabi-5_4-2016q2/bin/../lib/gcc/arm-none-eabi/5.4.1/../../../../arm-none-eabi/lib/armv7e-m/fpu/libg.a(lib_a-mallocr.o)
 .debug_frame   0x00003194       0x30 /home/kedou/Project/OpenRE/Tools/gcc-arm-none-eabi-5_4-2016q2/bin/../lib/gcc/arm-none-eabi/5.4.1/../../../../arm-none-eabi/lib/armv7e-m/fpu/libg.a(lib_a-memmove.o)
 .debug_frame   0x000031c4       0x34 /home/kedou/Project/OpenRE/Tools/gcc-arm-none-eabi-5_4-2016q2/bin/../lib/gcc/arm-none-eabi/5.4.1/../../../../arm-none-eabi/lib/armv7e-m/fpu/libg.a(lib_a-memset.o)
 .debug_frame   0x000031f8       0x30 /home/kedou/Project/OpenRE/Tools/gcc-arm-none-eabi-5_4-2016q2/bin/../lib/gcc/arm-none-eabi/5.4.1/../../../../arm-none-eabi/lib/armv7e-m/fpu/libg.a(lib_a-mlock.o)
 .debug_frame   0x00003228      0x264 /home/kedou/Project/OpenRE/Tools/gcc-arm-none-eabi-5_4-2016q2/bin/../lib/gcc/arm-none-eabi/5.4.1/../../../../arm-none-eabi/lib/armv7e-m/fpu/libg.a(lib_a-mprec.o)
 .debug_frame   0x0000348c       0x60 /home/kedou/Project/OpenRE/Tools/gcc-arm-none-eabi-5_4-2016q2/bin/../lib/gcc/arm-none-eabi/5.4.1/../../../../arm-none-eabi/lib/armv7e-m/fpu/libg.a(lib_a-reallocr.o)
 .debug_frame   0x000034ec       0x2c /home/kedou/Project/OpenRE/Tools/gcc-arm-none-eabi-5_4-2016q2/bin/../lib/gcc/arm-none-eabi/5.4.1/../../../../arm-none-eabi/lib/armv7e-m/fpu/libg.a(lib_a-sbrkr.o)
 .debug_frame   0x00003518       0x88 /home/kedou/Project/OpenRE/Tools/gcc-arm-none-eabi-5_4-2016q2/bin/../lib/gcc/arm-none-eabi/5.4.1/../../../../arm-none-eabi/lib/armv7e-m/fpu/libg.a(lib_a-stdio.o)
 .debug_frame   0x000035a0       0xc8 /home/kedou/Project/OpenRE/Tools/gcc-arm-none-eabi-5_4-2016q2/bin/../lib/gcc/arm-none-eabi/5.4.1/../../../../arm-none-eabi/lib/armv7e-m/fpu/libg.a(lib_a-vfiprintf.o)
 .debug_frame   0x00003668       0x2c /home/kedou/Project/OpenRE/Tools/gcc-arm-none-eabi-5_4-2016q2/bin/../lib/gcc/arm-none-eabi/5.4.1/../../../../arm-none-eabi/lib/armv7e-m/fpu/libg.a(lib_a-writer.o)
 .debug_frame   0x00003694       0x28 /home/kedou/Project/OpenRE/Tools/gcc-arm-none-eabi-5_4-2016q2/bin/../lib/gcc/arm-none-eabi/5.4.1/../../../../arm-none-eabi/lib/armv7e-m/fpu/libg.a(lib_a-callocr.o)
 .debug_frame   0x000036bc       0x2c /home/kedou/Project/OpenRE/Tools/gcc-arm-none-eabi-5_4-2016q2/bin/../lib/gcc/arm-none-eabi/5.4.1/../../../../arm-none-eabi/lib/armv7e-m/fpu/libg.a(lib_a-closer.o)
 .debug_frame   0x000036e8       0x44 /home/kedou/Project/OpenRE/Tools/gcc-arm-none-eabi-5_4-2016q2/bin/../lib/gcc/arm-none-eabi/5.4.1/../../../../arm-none-eabi/lib/armv7e-m/fpu/libg.a(lib_a-fclose.o)
 .debug_frame   0x0000372c       0x8c /home/kedou/Project/OpenRE/Tools/gcc-arm-none-eabi-5_4-2016q2/bin/../lib/gcc/arm-none-eabi/5.4.1/../../../../arm-none-eabi/lib/armv7e-m/fpu/libg.a(lib_a-fputwc.o)
 .debug_frame   0x000037b8       0x2c /home/kedou/Project/OpenRE/Tools/gcc-arm-none-eabi-5_4-2016q2/bin/../lib/gcc/arm-none-eabi/5.4.1/../../../../arm-none-eabi/lib/armv7e-m/fpu/libg.a(lib_a-fstatr.o)
 .debug_frame   0x000037e4       0x2c /home/kedou/Project/OpenRE/Tools/gcc-arm-none-eabi-5_4-2016q2/bin/../lib/gcc/arm-none-eabi/5.4.1/../../../../arm-none-eabi/lib/armv7e-m/fpu/libg.a(lib_a-isattyr.o)
 .debug_frame   0x00003810       0x2c /home/kedou/Project/OpenRE/Tools/gcc-arm-none-eabi-5_4-2016q2/bin/../lib/gcc/arm-none-eabi/5.4.1/../../../../arm-none-eabi/lib/armv7e-m/fpu/libg.a(lib_a-lseekr.o)
 .debug_frame   0x0000383c       0x2c /home/kedou/Project/OpenRE/Tools/gcc-arm-none-eabi-5_4-2016q2/bin/../lib/gcc/arm-none-eabi/5.4.1/../../../../arm-none-eabi/lib/armv7e-m/fpu/libg.a(lib_a-readr.o)
 .debug_frame   0x00003868       0x40 /home/kedou/Project/OpenRE/Tools/gcc-arm-none-eabi-5_4-2016q2/bin/../lib/gcc/arm-none-eabi/5.4.1/../../../../arm-none-eabi/lib/armv7e-m/fpu/libg.a(lib_a-wbuf.o)
 .debug_frame   0x000038a8       0x60 /home/kedou/Project/OpenRE/Tools/gcc-arm-none-eabi-5_4-2016q2/bin/../lib/gcc/arm-none-eabi/5.4.1/../../../../arm-none-eabi/lib/armv7e-m/fpu/libg.a(lib_a-wcrtomb.o)
 .debug_frame   0x00003908       0x48 /home/kedou/Project/OpenRE/Tools/gcc-arm-none-eabi-5_4-2016q2/bin/../lib/gcc/arm-none-eabi/5.4.1/../../../../arm-none-eabi/lib/armv7e-m/fpu/libg.a(lib_a-wctomb_r.o)
 .debug_frame   0x00003950       0x2c /home/kedou/Project/OpenRE/Tools/gcc-arm-none-eabi-5_4-2016q2/bin/../lib/gcc/arm-none-eabi/5.4.1/armv7e-m/fpu/libgcc.a(_aeabi_uldivmod.o)
 .debug_frame   0x0000397c       0x34 /home/kedou/Project/OpenRE/Tools/gcc-arm-none-eabi-5_4-2016q2/bin/../lib/gcc/arm-none-eabi/5.4.1/armv7e-m/fpu/libgcc.a(_udivmoddi4.o)

Cross Reference Table

Symbol                                            File
ADC_AnalogWatchdogCmd                             ../../../../1_Processor/STM32F4/STM32F4-Discovery_FW_V1.1.0/Libraries/STM32F4xx_StdPeriph_Driver/src/stm32f4xx_adc.o
ADC_AnalogWatchdogSingleChannelConfig             ../../../../1_Processor/STM32F4/STM32F4-Discovery_FW_V1.1.0/Libraries/STM32F4xx_StdPeriph_Driver/src/stm32f4xx_adc.o
ADC_AnalogWatchdogThresholdsConfig                ../../../../1_Processor/STM32F4/STM32F4-Discovery_FW_V1.1.0/Libraries/STM32F4xx_StdPeriph_Driver/src/stm32f4xx_adc.o
ADC_AutoInjectedConvCmd                           ../../../../1_Processor/STM32F4/STM32F4-Discovery_FW_V1.1.0/Libraries/STM32F4xx_StdPeriph_Driver/src/stm32f4xx_adc.o
ADC_ClearFlag                                     ../../../../1_Processor/STM32F4/STM32F4-Discovery_FW_V1.1.0/Libraries/STM32F4xx_StdPeriph_Driver/src/stm32f4xx_adc.o
ADC_ClearITPendingBit                             ../../../../1_Processor/STM32F4/STM32F4-Discovery_FW_V1.1.0/Libraries/STM32F4xx_StdPeriph_Driver/src/stm32f4xx_adc.o
ADC_Cmd                                           ../../../../1_Processor/STM32F4/STM32F4-Discovery_FW_V1.1.0/Libraries/STM32F4xx_StdPeriph_Driver/src/stm32f4xx_adc.o
                                                  ../../../../1_Processor/STM32F4/BSPLIB/adc_dac.o
ADC_CommonInit                                    ../../../../1_Processor/STM32F4/STM32F4-Discovery_FW_V1.1.0/Libraries/STM32F4xx_StdPeriph_Driver/src/stm32f4xx_adc.o
                                                  ../../../../1_Processor/STM32F4/BSPLIB/adc_dac.o
ADC_CommonStructInit                              ../../../../1_Processor/STM32F4/STM32F4-Discovery_FW_V1.1.0/Libraries/STM32F4xx_StdPeriph_Driver/src/stm32f4xx_adc.o
ADC_ContinuousModeCmd                             ../../../../1_Processor/STM32F4/STM32F4-Discovery_FW_V1.1.0/Libraries/STM32F4xx_StdPeriph_Driver/src/stm32f4xx_adc.o
ADC_DMACmd                                        ../../../../1_Processor/STM32F4/STM32F4-Discovery_FW_V1.1.0/Libraries/STM32F4xx_StdPeriph_Driver/src/stm32f4xx_adc.o
                                                  ../../../../1_Processor/STM32F4/BSPLIB/adc_dac.o
ADC_DMARequestAfterLastTransferCmd                ../../../../1_Processor/STM32F4/STM32F4-Discovery_FW_V1.1.0/Libraries/STM32F4xx_StdPeriph_Driver/src/stm32f4xx_adc.o
                                                  ../../../../1_Processor/STM32F4/BSPLIB/adc_dac.o
ADC_DeInit                                        ../../../../1_Processor/STM32F4/STM32F4-Discovery_FW_V1.1.0/Libraries/STM32F4xx_StdPeriph_Driver/src/stm32f4xx_adc.o
ADC_DiscModeChannelCountConfig                    ../../../../1_Processor/STM32F4/STM32F4-Discovery_FW_V1.1.0/Libraries/STM32F4xx_StdPeriph_Driver/src/stm32f4xx_adc.o
ADC_DiscModeCmd                                   ../../../../1_Processor/STM32F4/STM32F4-Discovery_FW_V1.1.0/Libraries/STM32F4xx_StdPeriph_Driver/src/stm32f4xx_adc.o
ADC_EN_NUM                                        ../../../../1_Processor/STM32F4/BSPLIB/adc_dac.o
ADC_EOCOnEachRegularChannelCmd                    ../../../../1_Processor/STM32F4/STM32F4-Discovery_FW_V1.1.0/Libraries/STM32F4xx_StdPeriph_Driver/src/stm32f4xx_adc.o
ADC_ExternalTrigInjectedConvConfig                ../../../../1_Processor/STM32F4/STM32F4-Discovery_FW_V1.1.0/Libraries/STM32F4xx_StdPeriph_Driver/src/stm32f4xx_adc.o
ADC_ExternalTrigInjectedConvEdgeConfig            ../../../../1_Processor/STM32F4/STM32F4-Discovery_FW_V1.1.0/Libraries/STM32F4xx_StdPeriph_Driver/src/stm32f4xx_adc.o
ADC_GetConversionValue                            ../../../../1_Processor/STM32F4/STM32F4-Discovery_FW_V1.1.0/Libraries/STM32F4xx_StdPeriph_Driver/src/stm32f4xx_adc.o
ADC_GetFlagStatus                                 ../../../../1_Processor/STM32F4/STM32F4-Discovery_FW_V1.1.0/Libraries/STM32F4xx_StdPeriph_Driver/src/stm32f4xx_adc.o
ADC_GetITStatus                                   ../../../../1_Processor/STM32F4/STM32F4-Discovery_FW_V1.1.0/Libraries/STM32F4xx_StdPeriph_Driver/src/stm32f4xx_adc.o
ADC_GetInjectedConversionValue                    ../../../../1_Processor/STM32F4/STM32F4-Discovery_FW_V1.1.0/Libraries/STM32F4xx_StdPeriph_Driver/src/stm32f4xx_adc.o
ADC_GetMultiModeConversionValue                   ../../../../1_Processor/STM32F4/STM32F4-Discovery_FW_V1.1.0/Libraries/STM32F4xx_StdPeriph_Driver/src/stm32f4xx_adc.o
ADC_GetSoftwareStartConvStatus                    ../../../../1_Processor/STM32F4/STM32F4-Discovery_FW_V1.1.0/Libraries/STM32F4xx_StdPeriph_Driver/src/stm32f4xx_adc.o
ADC_GetSoftwareStartInjectedConvCmdStatus         ../../../../1_Processor/STM32F4/STM32F4-Discovery_FW_V1.1.0/Libraries/STM32F4xx_StdPeriph_Driver/src/stm32f4xx_adc.o
ADC_IRQHandler                                    ../../../../1_Processor/STM32F4/STM32F4-Discovery_FW_V1.1.0/Libraries/CMSIS/ST/STM32F4xx/Source/Templates/gcc_ride7/startup_stm32f4xx.o
ADC_ITConfig                                      ../../../../1_Processor/STM32F4/STM32F4-Discovery_FW_V1.1.0/Libraries/STM32F4xx_StdPeriph_Driver/src/stm32f4xx_adc.o
ADC_Init                                          ../../../../1_Processor/STM32F4/STM32F4-Discovery_FW_V1.1.0/Libraries/STM32F4xx_StdPeriph_Driver/src/stm32f4xx_adc.o
                                                  ../../../../1_Processor/STM32F4/BSPLIB/adc_dac.o
ADC_InjectedChannelConfig                         ../../../../1_Processor/STM32F4/STM32F4-Discovery_FW_V1.1.0/Libraries/STM32F4xx_StdPeriph_Driver/src/stm32f4xx_adc.o
ADC_InjectedDiscModeCmd                           ../../../../1_Processor/STM32F4/STM32F4-Discovery_FW_V1.1.0/Libraries/STM32F4xx_StdPeriph_Driver/src/stm32f4xx_adc.o
ADC_InjectedSequencerLengthConfig                 ../../../../1_Processor/STM32F4/STM32F4-Discovery_FW_V1.1.0/Libraries/STM32F4xx_StdPeriph_Driver/src/stm32f4xx_adc.o
ADC_MultiModeDMARequestAfterLastTransferCmd       ../../../../1_Processor/STM32F4/STM32F4-Discovery_FW_V1.1.0/Libraries/STM32F4xx_StdPeriph_Driver/src/stm32f4xx_adc.o
                                                  ../../../../1_Processor/STM32F4/BSPLIB/adc_dac.o
ADC_RegularChannelConfig                          ../../../../1_Processor/STM32F4/STM32F4-Discovery_FW_V1.1.0/Libraries/STM32F4xx_StdPeriph_Driver/src/stm32f4xx_adc.o
                                                  ../../../../1_Processor/STM32F4/BSPLIB/adc_dac.o
ADC_Sample_Value                                  ../../../../1_Processor/STM32F4/BSPLIB/adc_dac.o
ADC_SetInjectedOffset                             ../../../../1_Processor/STM32F4/STM32F4-Discovery_FW_V1.1.0/Libraries/STM32F4xx_StdPeriph_Driver/src/stm32f4xx_adc.o
ADC_SoftwareStartConv                             ../../../../1_Processor/STM32F4/STM32F4-Discovery_FW_V1.1.0/Libraries/STM32F4xx_StdPeriph_Driver/src/stm32f4xx_adc.o
                                                  ../../../../1_Processor/STM32F4/BSPLIB/adc_dac.o
ADC_SoftwareStartInjectedConv                     ../../../../1_Processor/STM32F4/STM32F4-Discovery_FW_V1.1.0/Libraries/STM32F4xx_StdPeriph_Driver/src/stm32f4xx_adc.o
ADC_StructInit                                    ../../../../1_Processor/STM32F4/STM32F4-Discovery_FW_V1.1.0/Libraries/STM32F4xx_StdPeriph_Driver/src/stm32f4xx_adc.o
ADC_TempSensorVrefintCmd                          ../../../../1_Processor/STM32F4/STM32F4-Discovery_FW_V1.1.0/Libraries/STM32F4xx_StdPeriph_Driver/src/stm32f4xx_adc.o
                                                  ../../../../1_Processor/STM32F4/BSPLIB/adc_dac.o
ADC_VBATCmd                                       ../../../../1_Processor/STM32F4/STM32F4-Discovery_FW_V1.1.0/Libraries/STM32F4xx_StdPeriph_Driver/src/stm32f4xx_adc.o
AHBPrescTable                                     ../../../../1_Processor/STM32F4/STM32F4-Discovery_FW_V1.1.0/Libraries/CMSIS/ST/STM32F4xx/Source/Templates/system_stm32f4xx.o
Board::Board()                                    ../../../../1_Processor/BoardAbstract/control_unit_v1.o
                                                  ../src/main.o
Board::Board()                                    ../../../../1_Processor/BoardAbstract/control_unit_v1.o
Board::axServoGetRxByte(unsigned char*)           ../../../../1_Processor/BoardAbstract/control_unit_v1.o
Board::axServoInterfaceInit()                     ../../../../1_Processor/BoardAbstract/control_unit_v1.o
Board::axServoRxModel()                           ../../../../1_Processor/BoardAbstract/control_unit_v1.o
Board::axServoSendTxByte(unsigned char)           ../../../../1_Processor/BoardAbstract/control_unit_v1.o
Board::axServoTxModel()                           ../../../../1_Processor/BoardAbstract/control_unit_v1.o
Board::beepInit()                                 ../../../../1_Processor/BoardAbstract/control_unit_v1.o
Board::boardBasicCall()                           ../../../../1_Processor/BoardAbstract/control_unit_v1.o
                                                  ../src/main.o
Board::boardBasicInit()                           ../../../../1_Processor/BoardAbstract/control_unit_v1.o
                                                  ../src/main.o
Board::debugInterfaceInit()                       ../../../../1_Processor/BoardAbstract/control_unit_v1.o
Board::debugPutChar(unsigned char)                ../../../../1_Processor/BoardAbstract/control_unit_v1.o
Board::eepromI2CInit()                            ../../../../1_Processor/BoardAbstract/control_unit_v1.o
Board::eepromI2CReadBuf(unsigned char, unsigned char, unsigned char*, unsigned char, unsigned char) ../../../../1_Processor/BoardAbstract/control_unit_v1.o
Board::eepromI2CReadByte(unsigned char, unsigned char, unsigned char) ../../../../1_Processor/BoardAbstract/control_unit_v1.o
Board::eepromI2CWriteBuf(unsigned char, unsigned char, unsigned char*, unsigned char, unsigned char) ../../../../1_Processor/BoardAbstract/control_unit_v1.o
Board::eepromI2CWriteByte(unsigned char, unsigned char, unsigned char, unsigned char) ../../../../1_Processor/BoardAbstract/control_unit_v1.o
Board::extendI2CInit()                            ../../../../1_Processor/BoardAbstract/control_unit_v1.o
Board::extendI2CReadBuf(unsigned char, unsigned char, unsigned char*, unsigned char, unsigned char) ../../../../1_Processor/BoardAbstract/control_unit_v1.o
Board::extendI2CReadByte(unsigned char, unsigned char, unsigned char) ../../../../1_Processor/BoardAbstract/control_unit_v1.o
Board::extendI2CWriteBuf(unsigned char, unsigned char, unsigned char*, unsigned char, unsigned char) ../../../../1_Processor/BoardAbstract/control_unit_v1.o
Board::extendI2CWriteByte(unsigned char, unsigned char, unsigned char, unsigned char) ../../../../1_Processor/BoardAbstract/control_unit_v1.o
Board::getBatteryVoltage()                        ../../../../1_Processor/BoardAbstract/control_unit_v1.o
Board::getCPUInfo()                               ../../../../1_Processor/BoardAbstract/control_unit_v1.o
Board::getCPUTemperature()                        ../../../../1_Processor/BoardAbstract/control_unit_v1.o
Board::getCPUUsage()                              ../../../../1_Processor/BoardAbstract/control_unit_v1.o
Board::getMotorCurrent(unsigned char)             ../../../../1_Processor/BoardAbstract/control_unit_v1.o
Board::getMotorEncoderCNT(unsigned char)          ../../../../1_Processor/BoardAbstract/control_unit_v1.o
Board::gpsInterfaceInit()                         ../../../../1_Processor/BoardAbstract/control_unit_v1.o
Board::gpsSendTxByte(unsigned char)               ../../../../1_Processor/BoardAbstract/control_unit_v1.o
Board::imuI2CInit()                               ../../../../1_Processor/BoardAbstract/control_unit_v1.o
Board::imuI2CReadBuf(unsigned char, unsigned char, unsigned char*, unsigned char, unsigned char) ../../../../1_Processor/BoardAbstract/control_unit_v1.o
Board::imuI2CReadByte(unsigned char, unsigned char, unsigned char) ../../../../1_Processor/BoardAbstract/control_unit_v1.o
Board::imuI2CWriteBuf(unsigned char, unsigned char, unsigned char*, unsigned char, unsigned char) ../../../../1_Processor/BoardAbstract/control_unit_v1.o
Board::imuI2CWriteByte(unsigned char, unsigned char, unsigned char, unsigned char) ../../../../1_Processor/BoardAbstract/control_unit_v1.o
Board::keyInit()                                  ../../../../1_Processor/BoardAbstract/control_unit_v1.o
Board::keyStateRenew()                            ../../../../1_Processor/BoardAbstract/control_unit_v1.o
Board::ledInit()                                  ../../../../1_Processor/BoardAbstract/control_unit_v1.o
Board::motorDisable(unsigned char)                ../../../../1_Processor/BoardAbstract/control_unit_v1.o
Board::motorEnable(unsigned char)                 ../../../../1_Processor/BoardAbstract/control_unit_v1.o
Board::motorInterfaceInit(unsigned char, float)   ../../../../1_Processor/BoardAbstract/control_unit_v1.o
Board::motorSetPWM(unsigned char, int)            ../../../../1_Processor/BoardAbstract/control_unit_v1.o
Board::pwmInterfaceInit(unsigned char, float)     ../../../../1_Processor/BoardAbstract/control_unit_v1.o
Board::sbusInterfaceInit()                        ../../../../1_Processor/BoardAbstract/control_unit_v1.o
Board::setBeepState(unsigned char)                ../../../../1_Processor/BoardAbstract/control_unit_v1.o
Board::setLedState(unsigned char, unsigned char)  ../../../../1_Processor/BoardAbstract/control_unit_v1.o
                                                  ../src/main.o
Board::setPWMValue(unsigned char, float)          ../../../../1_Processor/BoardAbstract/control_unit_v1.o
BusFault_Handler                                  ../../../../1_Processor/STM32F4/STM32F4-Discovery_FW_V1.1.0/Libraries/CMSIS/ST/STM32F4xx/Source/Templates/gcc_ride7/startup_stm32f4xx.o
CAN1_RX0_IRQHandler                               ../../../../1_Processor/STM32F4/STM32F4-Discovery_FW_V1.1.0/Libraries/CMSIS/ST/STM32F4xx/Source/Templates/gcc_ride7/startup_stm32f4xx.o
CAN1_RX0_NVIC_Configuration                       ../../../../1_Processor/STM32F4/BSPLIB/nvic.o
                                                  ../../../../1_Processor/STM32F4/BSPLIB/can.o
CAN1_RX1_IRQHandler                               ../../../../1_Processor/STM32F4/STM32F4-Discovery_FW_V1.1.0/Libraries/CMSIS/ST/STM32F4xx/Source/Templates/gcc_ride7/startup_stm32f4xx.o
CAN1_RX1_NVIC_Configuration                       ../../../../1_Processor/STM32F4/BSPLIB/nvic.o
                                                  ../../../../1_Processor/STM32F4/BSPLIB/can.o
CAN1_SCE_IRQHandler                               ../../../../1_Processor/STM32F4/STM32F4-Discovery_FW_V1.1.0/Libraries/CMSIS/ST/STM32F4xx/Source/Templates/gcc_ride7/startup_stm32f4xx.o
CAN1_TX_IRQHandler                                ../../../../1_Processor/STM32F4/STM32F4-Discovery_FW_V1.1.0/Libraries/CMSIS/ST/STM32F4xx/Source/Templates/gcc_ride7/startup_stm32f4xx.o
CAN2_RX0_IRQHandler                               ../../../../1_Processor/STM32F4/STM32F4-Discovery_FW_V1.1.0/Libraries/CMSIS/ST/STM32F4xx/Source/Templates/gcc_ride7/startup_stm32f4xx.o
CAN2_RX0_NVIC_Configuration                       ../../../../1_Processor/STM32F4/BSPLIB/nvic.o
                                                  ../../../../1_Processor/STM32F4/BSPLIB/can.o
CAN2_RX1_IRQHandler                               ../../../../1_Processor/STM32F4/STM32F4-Discovery_FW_V1.1.0/Libraries/CMSIS/ST/STM32F4xx/Source/Templates/gcc_ride7/startup_stm32f4xx.o
CAN2_RX1_NVIC_Configuration                       ../../../../1_Processor/STM32F4/BSPLIB/nvic.o
                                                  ../../../../1_Processor/STM32F4/BSPLIB/can.o
CAN2_SCE_IRQHandler                               ../../../../1_Processor/STM32F4/STM32F4-Discovery_FW_V1.1.0/Libraries/CMSIS/ST/STM32F4xx/Source/Templates/gcc_ride7/startup_stm32f4xx.o
CAN2_TX_IRQHandler                                ../../../../1_Processor/STM32F4/STM32F4-Discovery_FW_V1.1.0/Libraries/CMSIS/ST/STM32F4xx/Source/Templates/gcc_ride7/startup_stm32f4xx.o
CAN_CancelTransmit                                ../../../../1_Processor/STM32F4/STM32F4-Discovery_FW_V1.1.0/Libraries/STM32F4xx_StdPeriph_Driver/src/stm32f4xx_can.o
CAN_ClearFlag                                     ../../../../1_Processor/STM32F4/STM32F4-Discovery_FW_V1.1.0/Libraries/STM32F4xx_StdPeriph_Driver/src/stm32f4xx_can.o
CAN_ClearITPendingBit                             ../../../../1_Processor/STM32F4/STM32F4-Discovery_FW_V1.1.0/Libraries/STM32F4xx_StdPeriph_Driver/src/stm32f4xx_can.o
CAN_DBGFreeze                                     ../../../../1_Processor/STM32F4/STM32F4-Discovery_FW_V1.1.0/Libraries/STM32F4xx_StdPeriph_Driver/src/stm32f4xx_can.o
CAN_DeInit                                        ../../../../1_Processor/STM32F4/STM32F4-Discovery_FW_V1.1.0/Libraries/STM32F4xx_StdPeriph_Driver/src/stm32f4xx_can.o
                                                  ../../../../1_Processor/STM32F4/BSPLIB/can.o
CAN_FIFORelease                                   ../../../../1_Processor/STM32F4/STM32F4-Discovery_FW_V1.1.0/Libraries/STM32F4xx_StdPeriph_Driver/src/stm32f4xx_can.o
CAN_FilterInit                                    ../../../../1_Processor/STM32F4/STM32F4-Discovery_FW_V1.1.0/Libraries/STM32F4xx_StdPeriph_Driver/src/stm32f4xx_can.o
                                                  ../../../../1_Processor/STM32F4/BSPLIB/can.o
CAN_GetFlagStatus                                 ../../../../1_Processor/STM32F4/STM32F4-Discovery_FW_V1.1.0/Libraries/STM32F4xx_StdPeriph_Driver/src/stm32f4xx_can.o
CAN_GetITStatus                                   ../../../../1_Processor/STM32F4/STM32F4-Discovery_FW_V1.1.0/Libraries/STM32F4xx_StdPeriph_Driver/src/stm32f4xx_can.o
CAN_GetLSBTransmitErrorCounter                    ../../../../1_Processor/STM32F4/STM32F4-Discovery_FW_V1.1.0/Libraries/STM32F4xx_StdPeriph_Driver/src/stm32f4xx_can.o
CAN_GetLastErrorCode                              ../../../../1_Processor/STM32F4/STM32F4-Discovery_FW_V1.1.0/Libraries/STM32F4xx_StdPeriph_Driver/src/stm32f4xx_can.o
CAN_GetReceiveErrorCounter                        ../../../../1_Processor/STM32F4/STM32F4-Discovery_FW_V1.1.0/Libraries/STM32F4xx_StdPeriph_Driver/src/stm32f4xx_can.o
CAN_ITConfig                                      ../../../../1_Processor/STM32F4/STM32F4-Discovery_FW_V1.1.0/Libraries/STM32F4xx_StdPeriph_Driver/src/stm32f4xx_can.o
                                                  ../../../../1_Processor/STM32F4/BSPLIB/can.o
CAN_Init                                          ../../../../1_Processor/STM32F4/STM32F4-Discovery_FW_V1.1.0/Libraries/STM32F4xx_StdPeriph_Driver/src/stm32f4xx_can.o
                                                  ../../../../1_Processor/STM32F4/BSPLIB/can.o
CAN_MessagePending                                ../../../../1_Processor/STM32F4/STM32F4-Discovery_FW_V1.1.0/Libraries/STM32F4xx_StdPeriph_Driver/src/stm32f4xx_can.o
CAN_OperatingModeRequest                          ../../../../1_Processor/STM32F4/STM32F4-Discovery_FW_V1.1.0/Libraries/STM32F4xx_StdPeriph_Driver/src/stm32f4xx_can.o
CAN_Receive                                       ../../../../1_Processor/STM32F4/STM32F4-Discovery_FW_V1.1.0/Libraries/STM32F4xx_StdPeriph_Driver/src/stm32f4xx_can.o
CAN_SlaveStartBank                                ../../../../1_Processor/STM32F4/STM32F4-Discovery_FW_V1.1.0/Libraries/STM32F4xx_StdPeriph_Driver/src/stm32f4xx_can.o
CAN_Sleep                                         ../../../../1_Processor/STM32F4/STM32F4-Discovery_FW_V1.1.0/Libraries/STM32F4xx_StdPeriph_Driver/src/stm32f4xx_can.o
CAN_StructInit                                    ../../../../1_Processor/STM32F4/STM32F4-Discovery_FW_V1.1.0/Libraries/STM32F4xx_StdPeriph_Driver/src/stm32f4xx_can.o
                                                  ../../../../1_Processor/STM32F4/BSPLIB/can.o
CAN_TTComModeCmd                                  ../../../../1_Processor/STM32F4/STM32F4-Discovery_FW_V1.1.0/Libraries/STM32F4xx_StdPeriph_Driver/src/stm32f4xx_can.o
CAN_Transmit                                      ../../../../1_Processor/STM32F4/STM32F4-Discovery_FW_V1.1.0/Libraries/STM32F4xx_StdPeriph_Driver/src/stm32f4xx_can.o
                                                  ../../../../1_Processor/STM32F4/BSPLIB/can.o
CAN_TransmitStatus                                ../../../../1_Processor/STM32F4/STM32F4-Discovery_FW_V1.1.0/Libraries/STM32F4xx_StdPeriph_Driver/src/stm32f4xx_can.o
CAN_WakeUp                                        ../../../../1_Processor/STM32F4/STM32F4-Discovery_FW_V1.1.0/Libraries/STM32F4xx_StdPeriph_Driver/src/stm32f4xx_can.o
CRC_CalcBlockCRC                                  ../../../../1_Processor/STM32F4/STM32F4-Discovery_FW_V1.1.0/Libraries/STM32F4xx_StdPeriph_Driver/src/stm32f4xx_crc.o
CRC_CalcCRC                                       ../../../../1_Processor/STM32F4/STM32F4-Discovery_FW_V1.1.0/Libraries/STM32F4xx_StdPeriph_Driver/src/stm32f4xx_crc.o
CRC_GetCRC                                        ../../../../1_Processor/STM32F4/STM32F4-Discovery_FW_V1.1.0/Libraries/STM32F4xx_StdPeriph_Driver/src/stm32f4xx_crc.o
CRC_GetIDRegister                                 ../../../../1_Processor/STM32F4/STM32F4-Discovery_FW_V1.1.0/Libraries/STM32F4xx_StdPeriph_Driver/src/stm32f4xx_crc.o
CRC_ResetDR                                       ../../../../1_Processor/STM32F4/STM32F4-Discovery_FW_V1.1.0/Libraries/STM32F4xx_StdPeriph_Driver/src/stm32f4xx_crc.o
CRC_SetIDRegister                                 ../../../../1_Processor/STM32F4/STM32F4-Discovery_FW_V1.1.0/Libraries/STM32F4xx_StdPeriph_Driver/src/stm32f4xx_crc.o
CRYP_AES_CBC                                      ../../../../1_Processor/STM32F4/STM32F4-Discovery_FW_V1.1.0/Libraries/STM32F4xx_StdPeriph_Driver/src/stm32f4xx_cryp_aes.o
CRYP_AES_CTR                                      ../../../../1_Processor/STM32F4/STM32F4-Discovery_FW_V1.1.0/Libraries/STM32F4xx_StdPeriph_Driver/src/stm32f4xx_cryp_aes.o
CRYP_AES_ECB                                      ../../../../1_Processor/STM32F4/STM32F4-Discovery_FW_V1.1.0/Libraries/STM32F4xx_StdPeriph_Driver/src/stm32f4xx_cryp_aes.o
CRYP_Cmd                                          ../../../../1_Processor/STM32F4/STM32F4-Discovery_FW_V1.1.0/Libraries/STM32F4xx_StdPeriph_Driver/src/stm32f4xx_cryp.o
                                                  ../../../../1_Processor/STM32F4/STM32F4-Discovery_FW_V1.1.0/Libraries/STM32F4xx_StdPeriph_Driver/src/stm32f4xx_cryp_tdes.o
                                                  ../../../../1_Processor/STM32F4/STM32F4-Discovery_FW_V1.1.0/Libraries/STM32F4xx_StdPeriph_Driver/src/stm32f4xx_cryp_des.o
                                                  ../../../../1_Processor/STM32F4/STM32F4-Discovery_FW_V1.1.0/Libraries/STM32F4xx_StdPeriph_Driver/src/stm32f4xx_cryp_aes.o
CRYP_DES_CBC                                      ../../../../1_Processor/STM32F4/STM32F4-Discovery_FW_V1.1.0/Libraries/STM32F4xx_StdPeriph_Driver/src/stm32f4xx_cryp_des.o
CRYP_DES_ECB                                      ../../../../1_Processor/STM32F4/STM32F4-Discovery_FW_V1.1.0/Libraries/STM32F4xx_StdPeriph_Driver/src/stm32f4xx_cryp_des.o
CRYP_DMACmd                                       ../../../../1_Processor/STM32F4/STM32F4-Discovery_FW_V1.1.0/Libraries/STM32F4xx_StdPeriph_Driver/src/stm32f4xx_cryp.o
CRYP_DataIn                                       ../../../../1_Processor/STM32F4/STM32F4-Discovery_FW_V1.1.0/Libraries/STM32F4xx_StdPeriph_Driver/src/stm32f4xx_cryp.o
                                                  ../../../../1_Processor/STM32F4/STM32F4-Discovery_FW_V1.1.0/Libraries/STM32F4xx_StdPeriph_Driver/src/stm32f4xx_cryp_tdes.o
                                                  ../../../../1_Processor/STM32F4/STM32F4-Discovery_FW_V1.1.0/Libraries/STM32F4xx_StdPeriph_Driver/src/stm32f4xx_cryp_des.o
                                                  ../../../../1_Processor/STM32F4/STM32F4-Discovery_FW_V1.1.0/Libraries/STM32F4xx_StdPeriph_Driver/src/stm32f4xx_cryp_aes.o
CRYP_DataOut                                      ../../../../1_Processor/STM32F4/STM32F4-Discovery_FW_V1.1.0/Libraries/STM32F4xx_StdPeriph_Driver/src/stm32f4xx_cryp.o
                                                  ../../../../1_Processor/STM32F4/STM32F4-Discovery_FW_V1.1.0/Libraries/STM32F4xx_StdPeriph_Driver/src/stm32f4xx_cryp_tdes.o
                                                  ../../../../1_Processor/STM32F4/STM32F4-Discovery_FW_V1.1.0/Libraries/STM32F4xx_StdPeriph_Driver/src/stm32f4xx_cryp_des.o
                                                  ../../../../1_Processor/STM32F4/STM32F4-Discovery_FW_V1.1.0/Libraries/STM32F4xx_StdPeriph_Driver/src/stm32f4xx_cryp_aes.o
CRYP_DeInit                                       ../../../../1_Processor/STM32F4/STM32F4-Discovery_FW_V1.1.0/Libraries/STM32F4xx_StdPeriph_Driver/src/stm32f4xx_cryp.o
CRYP_FIFOFlush                                    ../../../../1_Processor/STM32F4/STM32F4-Discovery_FW_V1.1.0/Libraries/STM32F4xx_StdPeriph_Driver/src/stm32f4xx_cryp.o
                                                  ../../../../1_Processor/STM32F4/STM32F4-Discovery_FW_V1.1.0/Libraries/STM32F4xx_StdPeriph_Driver/src/stm32f4xx_cryp_tdes.o
                                                  ../../../../1_Processor/STM32F4/STM32F4-Discovery_FW_V1.1.0/Libraries/STM32F4xx_StdPeriph_Driver/src/stm32f4xx_cryp_des.o
                                                  ../../../../1_Processor/STM32F4/STM32F4-Discovery_FW_V1.1.0/Libraries/STM32F4xx_StdPeriph_Driver/src/stm32f4xx_cryp_aes.o
CRYP_GetFlagStatus                                ../../../../1_Processor/STM32F4/STM32F4-Discovery_FW_V1.1.0/Libraries/STM32F4xx_StdPeriph_Driver/src/stm32f4xx_cryp.o
                                                  ../../../../1_Processor/STM32F4/STM32F4-Discovery_FW_V1.1.0/Libraries/STM32F4xx_StdPeriph_Driver/src/stm32f4xx_cryp_tdes.o
                                                  ../../../../1_Processor/STM32F4/STM32F4-Discovery_FW_V1.1.0/Libraries/STM32F4xx_StdPeriph_Driver/src/stm32f4xx_cryp_des.o
                                                  ../../../../1_Processor/STM32F4/STM32F4-Discovery_FW_V1.1.0/Libraries/STM32F4xx_StdPeriph_Driver/src/stm32f4xx_cryp_aes.o
CRYP_GetITStatus                                  ../../../../1_Processor/STM32F4/STM32F4-Discovery_FW_V1.1.0/Libraries/STM32F4xx_StdPeriph_Driver/src/stm32f4xx_cryp.o
CRYP_IRQHandler                                   ../../../../1_Processor/STM32F4/STM32F4-Discovery_FW_V1.1.0/Libraries/CMSIS/ST/STM32F4xx/Source/Templates/gcc_ride7/startup_stm32f4xx.o
CRYP_ITConfig                                     ../../../../1_Processor/STM32F4/STM32F4-Discovery_FW_V1.1.0/Libraries/STM32F4xx_StdPeriph_Driver/src/stm32f4xx_cryp.o
CRYP_IVInit                                       ../../../../1_Processor/STM32F4/STM32F4-Discovery_FW_V1.1.0/Libraries/STM32F4xx_StdPeriph_Driver/src/stm32f4xx_cryp.o
                                                  ../../../../1_Processor/STM32F4/STM32F4-Discovery_FW_V1.1.0/Libraries/STM32F4xx_StdPeriph_Driver/src/stm32f4xx_cryp_tdes.o
                                                  ../../../../1_Processor/STM32F4/STM32F4-Discovery_FW_V1.1.0/Libraries/STM32F4xx_StdPeriph_Driver/src/stm32f4xx_cryp_des.o
                                                  ../../../../1_Processor/STM32F4/STM32F4-Discovery_FW_V1.1.0/Libraries/STM32F4xx_StdPeriph_Driver/src/stm32f4xx_cryp_aes.o
CRYP_IVStructInit                                 ../../../../1_Processor/STM32F4/STM32F4-Discovery_FW_V1.1.0/Libraries/STM32F4xx_StdPeriph_Driver/src/stm32f4xx_cryp.o
CRYP_Init                                         ../../../../1_Processor/STM32F4/STM32F4-Discovery_FW_V1.1.0/Libraries/STM32F4xx_StdPeriph_Driver/src/stm32f4xx_cryp.o
                                                  ../../../../1_Processor/STM32F4/STM32F4-Discovery_FW_V1.1.0/Libraries/STM32F4xx_StdPeriph_Driver/src/stm32f4xx_cryp_tdes.o
                                                  ../../../../1_Processor/STM32F4/STM32F4-Discovery_FW_V1.1.0/Libraries/STM32F4xx_StdPeriph_Driver/src/stm32f4xx_cryp_des.o
                                                  ../../../../1_Processor/STM32F4/STM32F4-Discovery_FW_V1.1.0/Libraries/STM32F4xx_StdPeriph_Driver/src/stm32f4xx_cryp_aes.o
CRYP_KeyInit                                      ../../../../1_Processor/STM32F4/STM32F4-Discovery_FW_V1.1.0/Libraries/STM32F4xx_StdPeriph_Driver/src/stm32f4xx_cryp.o
                                                  ../../../../1_Processor/STM32F4/STM32F4-Discovery_FW_V1.1.0/Libraries/STM32F4xx_StdPeriph_Driver/src/stm32f4xx_cryp_tdes.o
                                                  ../../../../1_Processor/STM32F4/STM32F4-Discovery_FW_V1.1.0/Libraries/STM32F4xx_StdPeriph_Driver/src/stm32f4xx_cryp_des.o
                                                  ../../../../1_Processor/STM32F4/STM32F4-Discovery_FW_V1.1.0/Libraries/STM32F4xx_StdPeriph_Driver/src/stm32f4xx_cryp_aes.o
CRYP_KeyStructInit                                ../../../../1_Processor/STM32F4/STM32F4-Discovery_FW_V1.1.0/Libraries/STM32F4xx_StdPeriph_Driver/src/stm32f4xx_cryp.o
                                                  ../../../../1_Processor/STM32F4/STM32F4-Discovery_FW_V1.1.0/Libraries/STM32F4xx_StdPeriph_Driver/src/stm32f4xx_cryp_tdes.o
                                                  ../../../../1_Processor/STM32F4/STM32F4-Discovery_FW_V1.1.0/Libraries/STM32F4xx_StdPeriph_Driver/src/stm32f4xx_cryp_des.o
                                                  ../../../../1_Processor/STM32F4/STM32F4-Discovery_FW_V1.1.0/Libraries/STM32F4xx_StdPeriph_Driver/src/stm32f4xx_cryp_aes.o
CRYP_RestoreContext                               ../../../../1_Processor/STM32F4/STM32F4-Discovery_FW_V1.1.0/Libraries/STM32F4xx_StdPeriph_Driver/src/stm32f4xx_cryp.o
CRYP_SaveContext                                  ../../../../1_Processor/STM32F4/STM32F4-Discovery_FW_V1.1.0/Libraries/STM32F4xx_StdPeriph_Driver/src/stm32f4xx_cryp.o
CRYP_StructInit                                   ../../../../1_Processor/STM32F4/STM32F4-Discovery_FW_V1.1.0/Libraries/STM32F4xx_StdPeriph_Driver/src/stm32f4xx_cryp.o
CRYP_TDES_CBC                                     ../../../../1_Processor/STM32F4/STM32F4-Discovery_FW_V1.1.0/Libraries/STM32F4xx_StdPeriph_Driver/src/stm32f4xx_cryp_tdes.o
CRYP_TDES_ECB                                     ../../../../1_Processor/STM32F4/STM32F4-Discovery_FW_V1.1.0/Libraries/STM32F4xx_StdPeriph_Driver/src/stm32f4xx_cryp_tdes.o
Check_WKUP                                        ../../../../1_Processor/STM32F4/BSPLIB/wdg_wkup.o
DAC_ClearFlag                                     ../../../../1_Processor/STM32F4/STM32F4-Discovery_FW_V1.1.0/Libraries/STM32F4xx_StdPeriph_Driver/src/stm32f4xx_dac.o
DAC_ClearITPendingBit                             ../../../../1_Processor/STM32F4/STM32F4-Discovery_FW_V1.1.0/Libraries/STM32F4xx_StdPeriph_Driver/src/stm32f4xx_dac.o
DAC_Cmd                                           ../../../../1_Processor/STM32F4/STM32F4-Discovery_FW_V1.1.0/Libraries/STM32F4xx_StdPeriph_Driver/src/stm32f4xx_dac.o
                                                  ../../../../1_Processor/STM32F4/BSPLIB/adc_dac.o
DAC_DMACmd                                        ../../../../1_Processor/STM32F4/STM32F4-Discovery_FW_V1.1.0/Libraries/STM32F4xx_StdPeriph_Driver/src/stm32f4xx_dac.o
DAC_DeInit                                        ../../../../1_Processor/STM32F4/STM32F4-Discovery_FW_V1.1.0/Libraries/STM32F4xx_StdPeriph_Driver/src/stm32f4xx_dac.o
DAC_DualSoftwareTriggerCmd                        ../../../../1_Processor/STM32F4/STM32F4-Discovery_FW_V1.1.0/Libraries/STM32F4xx_StdPeriph_Driver/src/stm32f4xx_dac.o
DAC_GetDataOutputValue                            ../../../../1_Processor/STM32F4/STM32F4-Discovery_FW_V1.1.0/Libraries/STM32F4xx_StdPeriph_Driver/src/stm32f4xx_dac.o
DAC_GetFlagStatus                                 ../../../../1_Processor/STM32F4/STM32F4-Discovery_FW_V1.1.0/Libraries/STM32F4xx_StdPeriph_Driver/src/stm32f4xx_dac.o
DAC_GetITStatus                                   ../../../../1_Processor/STM32F4/STM32F4-Discovery_FW_V1.1.0/Libraries/STM32F4xx_StdPeriph_Driver/src/stm32f4xx_dac.o
DAC_ITConfig                                      ../../../../1_Processor/STM32F4/STM32F4-Discovery_FW_V1.1.0/Libraries/STM32F4xx_StdPeriph_Driver/src/stm32f4xx_dac.o
DAC_Init                                          ../../../../1_Processor/STM32F4/STM32F4-Discovery_FW_V1.1.0/Libraries/STM32F4xx_StdPeriph_Driver/src/stm32f4xx_dac.o
                                                  ../../../../1_Processor/STM32F4/BSPLIB/adc_dac.o
DAC_SetChannel1Data                               ../../../../1_Processor/STM32F4/STM32F4-Discovery_FW_V1.1.0/Libraries/STM32F4xx_StdPeriph_Driver/src/stm32f4xx_dac.o
                                                  ../../../../1_Processor/STM32F4/BSPLIB/adc_dac.o
DAC_SetChannel2Data                               ../../../../1_Processor/STM32F4/STM32F4-Discovery_FW_V1.1.0/Libraries/STM32F4xx_StdPeriph_Driver/src/stm32f4xx_dac.o
                                                  ../../../../1_Processor/STM32F4/BSPLIB/adc_dac.o
DAC_SetDualChannelData                            ../../../../1_Processor/STM32F4/STM32F4-Discovery_FW_V1.1.0/Libraries/STM32F4xx_StdPeriph_Driver/src/stm32f4xx_dac.o
DAC_SoftwareTriggerCmd                            ../../../../1_Processor/STM32F4/STM32F4-Discovery_FW_V1.1.0/Libraries/STM32F4xx_StdPeriph_Driver/src/stm32f4xx_dac.o
DAC_StructInit                                    ../../../../1_Processor/STM32F4/STM32F4-Discovery_FW_V1.1.0/Libraries/STM32F4xx_StdPeriph_Driver/src/stm32f4xx_dac.o
DAC_WaveGenerationCmd                             ../../../../1_Processor/STM32F4/STM32F4-Discovery_FW_V1.1.0/Libraries/STM32F4xx_StdPeriph_Driver/src/stm32f4xx_dac.o
DBGMCU_APB1PeriphConfig                           ../../../../1_Processor/STM32F4/STM32F4-Discovery_FW_V1.1.0/Libraries/STM32F4xx_StdPeriph_Driver/src/stm32f4xx_dbgmcu.o
DBGMCU_APB2PeriphConfig                           ../../../../1_Processor/STM32F4/STM32F4-Discovery_FW_V1.1.0/Libraries/STM32F4xx_StdPeriph_Driver/src/stm32f4xx_dbgmcu.o
DBGMCU_Config                                     ../../../../1_Processor/STM32F4/STM32F4-Discovery_FW_V1.1.0/Libraries/STM32F4xx_StdPeriph_Driver/src/stm32f4xx_dbgmcu.o
DBGMCU_GetDEVID                                   ../../../../1_Processor/STM32F4/STM32F4-Discovery_FW_V1.1.0/Libraries/STM32F4xx_StdPeriph_Driver/src/stm32f4xx_dbgmcu.o
DBGMCU_GetREVID                                   ../../../../1_Processor/STM32F4/STM32F4-Discovery_FW_V1.1.0/Libraries/STM32F4xx_StdPeriph_Driver/src/stm32f4xx_dbgmcu.o
DCMI_CROPCmd                                      ../../../../1_Processor/STM32F4/STM32F4-Discovery_FW_V1.1.0/Libraries/STM32F4xx_StdPeriph_Driver/src/stm32f4xx_dcmi.o
DCMI_CROPConfig                                   ../../../../1_Processor/STM32F4/STM32F4-Discovery_FW_V1.1.0/Libraries/STM32F4xx_StdPeriph_Driver/src/stm32f4xx_dcmi.o
DCMI_CaptureCmd                                   ../../../../1_Processor/STM32F4/STM32F4-Discovery_FW_V1.1.0/Libraries/STM32F4xx_StdPeriph_Driver/src/stm32f4xx_dcmi.o
DCMI_ClearFlag                                    ../../../../1_Processor/STM32F4/STM32F4-Discovery_FW_V1.1.0/Libraries/STM32F4xx_StdPeriph_Driver/src/stm32f4xx_dcmi.o
DCMI_ClearITPendingBit                            ../../../../1_Processor/STM32F4/STM32F4-Discovery_FW_V1.1.0/Libraries/STM32F4xx_StdPeriph_Driver/src/stm32f4xx_dcmi.o
DCMI_Cmd                                          ../../../../1_Processor/STM32F4/STM32F4-Discovery_FW_V1.1.0/Libraries/STM32F4xx_StdPeriph_Driver/src/stm32f4xx_dcmi.o
DCMI_DeInit                                       ../../../../1_Processor/STM32F4/STM32F4-Discovery_FW_V1.1.0/Libraries/STM32F4xx_StdPeriph_Driver/src/stm32f4xx_dcmi.o
DCMI_GetFlagStatus                                ../../../../1_Processor/STM32F4/STM32F4-Discovery_FW_V1.1.0/Libraries/STM32F4xx_StdPeriph_Driver/src/stm32f4xx_dcmi.o
DCMI_GetITStatus                                  ../../../../1_Processor/STM32F4/STM32F4-Discovery_FW_V1.1.0/Libraries/STM32F4xx_StdPeriph_Driver/src/stm32f4xx_dcmi.o
DCMI_IRQHandler                                   ../../../../1_Processor/STM32F4/STM32F4-Discovery_FW_V1.1.0/Libraries/CMSIS/ST/STM32F4xx/Source/Templates/gcc_ride7/startup_stm32f4xx.o
DCMI_ITConfig                                     ../../../../1_Processor/STM32F4/STM32F4-Discovery_FW_V1.1.0/Libraries/STM32F4xx_StdPeriph_Driver/src/stm32f4xx_dcmi.o
DCMI_Init                                         ../../../../1_Processor/STM32F4/STM32F4-Discovery_FW_V1.1.0/Libraries/STM32F4xx_StdPeriph_Driver/src/stm32f4xx_dcmi.o
DCMI_JPEGCmd                                      ../../../../1_Processor/STM32F4/STM32F4-Discovery_FW_V1.1.0/Libraries/STM32F4xx_StdPeriph_Driver/src/stm32f4xx_dcmi.o
DCMI_ReadData                                     ../../../../1_Processor/STM32F4/STM32F4-Discovery_FW_V1.1.0/Libraries/STM32F4xx_StdPeriph_Driver/src/stm32f4xx_dcmi.o
DCMI_SetEmbeddedSynchroCodes                      ../../../../1_Processor/STM32F4/STM32F4-Discovery_FW_V1.1.0/Libraries/STM32F4xx_StdPeriph_Driver/src/stm32f4xx_dcmi.o
DCMI_StructInit                                   ../../../../1_Processor/STM32F4/STM32F4-Discovery_FW_V1.1.0/Libraries/STM32F4xx_StdPeriph_Driver/src/stm32f4xx_dcmi.o
DMA1_Stream0_IRQHandler                           ../../../../1_Processor/STM32F4/STM32F4-Discovery_FW_V1.1.0/Libraries/CMSIS/ST/STM32F4xx/Source/Templates/gcc_ride7/startup_stm32f4xx.o
DMA1_Stream1_IRQHandler                           ../../../../1_Processor/STM32F4/STM32F4-Discovery_FW_V1.1.0/Libraries/CMSIS/ST/STM32F4xx/Source/Templates/gcc_ride7/startup_stm32f4xx.o
DMA1_Stream2_IRQHandler                           ../../../../1_Processor/STM32F4/STM32F4-Discovery_FW_V1.1.0/Libraries/CMSIS/ST/STM32F4xx/Source/Templates/gcc_ride7/startup_stm32f4xx.o
DMA1_Stream3_IRQHandler                           ../../../../1_Processor/STM32F4/STM32F4-Discovery_FW_V1.1.0/Libraries/CMSIS/ST/STM32F4xx/Source/Templates/gcc_ride7/startup_stm32f4xx.o
DMA1_Stream4_IRQHandler                           ../../../../1_Processor/STM32F4/STM32F4-Discovery_FW_V1.1.0/Libraries/CMSIS/ST/STM32F4xx/Source/Templates/gcc_ride7/startup_stm32f4xx.o
DMA1_Stream5_IRQHandler                           ../../../../1_Processor/STM32F4/STM32F4-Discovery_FW_V1.1.0/Libraries/CMSIS/ST/STM32F4xx/Source/Templates/gcc_ride7/startup_stm32f4xx.o
DMA1_Stream6_IRQHandler                           ../../../../1_Processor/STM32F4/STM32F4-Discovery_FW_V1.1.0/Libraries/CMSIS/ST/STM32F4xx/Source/Templates/gcc_ride7/startup_stm32f4xx.o
DMA1_Stream7_IRQHandler                           ../../../../1_Processor/STM32F4/STM32F4-Discovery_FW_V1.1.0/Libraries/CMSIS/ST/STM32F4xx/Source/Templates/gcc_ride7/startup_stm32f4xx.o
DMA2_Stream0_IRQHandler                           ../../../../1_Processor/STM32F4/STM32F4-Discovery_FW_V1.1.0/Libraries/CMSIS/ST/STM32F4xx/Source/Templates/gcc_ride7/startup_stm32f4xx.o
DMA2_Stream1_IRQHandler                           ../../../../1_Processor/STM32F4/STM32F4-Discovery_FW_V1.1.0/Libraries/CMSIS/ST/STM32F4xx/Source/Templates/gcc_ride7/startup_stm32f4xx.o
DMA2_Stream2_IRQHandler                           ../../../../1_Processor/STM32F4/STM32F4-Discovery_FW_V1.1.0/Libraries/CMSIS/ST/STM32F4xx/Source/Templates/gcc_ride7/startup_stm32f4xx.o
DMA2_Stream3_IRQHandler                           ../../../../1_Processor/STM32F4/STM32F4-Discovery_FW_V1.1.0/Libraries/CMSIS/ST/STM32F4xx/Source/Templates/gcc_ride7/startup_stm32f4xx.o
DMA2_Stream4_IRQHandler                           ../../../../1_Processor/STM32F4/STM32F4-Discovery_FW_V1.1.0/Libraries/CMSIS/ST/STM32F4xx/Source/Templates/gcc_ride7/startup_stm32f4xx.o
DMA2_Stream5_IRQHandler                           ../../../../1_Processor/STM32F4/STM32F4-Discovery_FW_V1.1.0/Libraries/CMSIS/ST/STM32F4xx/Source/Templates/gcc_ride7/startup_stm32f4xx.o
DMA2_Stream6_IRQHandler                           ../../../../1_Processor/STM32F4/STM32F4-Discovery_FW_V1.1.0/Libraries/CMSIS/ST/STM32F4xx/Source/Templates/gcc_ride7/startup_stm32f4xx.o
DMA2_Stream7_IRQHandler                           ../../../../1_Processor/STM32F4/STM32F4-Discovery_FW_V1.1.0/Libraries/CMSIS/ST/STM32F4xx/Source/Templates/gcc_ride7/startup_stm32f4xx.o
DMA_ClearFlag                                     ../../../../1_Processor/STM32F4/STM32F4-Discovery_FW_V1.1.0/Libraries/STM32F4xx_StdPeriph_Driver/src/stm32f4xx_dma.o
DMA_ClearITPendingBit                             ../../../../1_Processor/STM32F4/STM32F4-Discovery_FW_V1.1.0/Libraries/STM32F4xx_StdPeriph_Driver/src/stm32f4xx_dma.o
DMA_Cmd                                           ../../../../1_Processor/STM32F4/STM32F4-Discovery_FW_V1.1.0/Libraries/STM32F4xx_StdPeriph_Driver/src/stm32f4xx_dma.o
                                                  ../../../../1_Processor/STM32F4/BSPLIB/adc_dac.o
DMA_DeInit                                        ../../../../1_Processor/STM32F4/STM32F4-Discovery_FW_V1.1.0/Libraries/STM32F4xx_StdPeriph_Driver/src/stm32f4xx_dma.o
                                                  ../../../../1_Processor/STM32F4/BSPLIB/adc_dac.o
DMA_DoubleBufferModeCmd                           ../../../../1_Processor/STM32F4/STM32F4-Discovery_FW_V1.1.0/Libraries/STM32F4xx_StdPeriph_Driver/src/stm32f4xx_dma.o
DMA_DoubleBufferModeConfig                        ../../../../1_Processor/STM32F4/STM32F4-Discovery_FW_V1.1.0/Libraries/STM32F4xx_StdPeriph_Driver/src/stm32f4xx_dma.o
DMA_FlowControllerConfig                          ../../../../1_Processor/STM32F4/STM32F4-Discovery_FW_V1.1.0/Libraries/STM32F4xx_StdPeriph_Driver/src/stm32f4xx_dma.o
DMA_GetCmdStatus                                  ../../../../1_Processor/STM32F4/STM32F4-Discovery_FW_V1.1.0/Libraries/STM32F4xx_StdPeriph_Driver/src/stm32f4xx_dma.o
DMA_GetCurrDataCounter                            ../../../../1_Processor/STM32F4/STM32F4-Discovery_FW_V1.1.0/Libraries/STM32F4xx_StdPeriph_Driver/src/stm32f4xx_dma.o
DMA_GetCurrentMemoryTarget                        ../../../../1_Processor/STM32F4/STM32F4-Discovery_FW_V1.1.0/Libraries/STM32F4xx_StdPeriph_Driver/src/stm32f4xx_dma.o
DMA_GetFIFOStatus                                 ../../../../1_Processor/STM32F4/STM32F4-Discovery_FW_V1.1.0/Libraries/STM32F4xx_StdPeriph_Driver/src/stm32f4xx_dma.o
DMA_GetFlagStatus                                 ../../../../1_Processor/STM32F4/STM32F4-Discovery_FW_V1.1.0/Libraries/STM32F4xx_StdPeriph_Driver/src/stm32f4xx_dma.o
DMA_GetITStatus                                   ../../../../1_Processor/STM32F4/STM32F4-Discovery_FW_V1.1.0/Libraries/STM32F4xx_StdPeriph_Driver/src/stm32f4xx_dma.o
DMA_ITConfig                                      ../../../../1_Processor/STM32F4/STM32F4-Discovery_FW_V1.1.0/Libraries/STM32F4xx_StdPeriph_Driver/src/stm32f4xx_dma.o
DMA_Init                                          ../../../../1_Processor/STM32F4/STM32F4-Discovery_FW_V1.1.0/Libraries/STM32F4xx_StdPeriph_Driver/src/stm32f4xx_dma.o
                                                  ../../../../1_Processor/STM32F4/BSPLIB/adc_dac.o
DMA_MemoryTargetConfig                            ../../../../1_Processor/STM32F4/STM32F4-Discovery_FW_V1.1.0/Libraries/STM32F4xx_StdPeriph_Driver/src/stm32f4xx_dma.o
DMA_PeriphIncOffsetSizeConfig                     ../../../../1_Processor/STM32F4/STM32F4-Discovery_FW_V1.1.0/Libraries/STM32F4xx_StdPeriph_Driver/src/stm32f4xx_dma.o
DMA_SetCurrDataCounter                            ../../../../1_Processor/STM32F4/STM32F4-Discovery_FW_V1.1.0/Libraries/STM32F4xx_StdPeriph_Driver/src/stm32f4xx_dma.o
DMA_StructInit                                    ../../../../1_Processor/STM32F4/STM32F4-Discovery_FW_V1.1.0/Libraries/STM32F4xx_StdPeriph_Driver/src/stm32f4xx_dma.o
DebugMon_Handler                                  ../../../../1_Processor/STM32F4/STM32F4-Discovery_FW_V1.1.0/Libraries/CMSIS/ST/STM32F4xx/Source/Templates/gcc_ride7/startup_stm32f4xx.o
Default_Handler                                   ../../../../1_Processor/STM32F4/STM32F4-Discovery_FW_V1.1.0/Libraries/CMSIS/ST/STM32F4xx/Source/Templates/gcc_ride7/startup_stm32f4xx.o
ETH_IRQHandler                                    ../../../../1_Processor/STM32F4/STM32F4-Discovery_FW_V1.1.0/Libraries/CMSIS/ST/STM32F4xx/Source/Templates/gcc_ride7/startup_stm32f4xx.o
ETH_WKUP_IRQHandler                               ../../../../1_Processor/STM32F4/STM32F4-Discovery_FW_V1.1.0/Libraries/CMSIS/ST/STM32F4xx/Source/Templates/gcc_ride7/startup_stm32f4xx.o
EXTI0_IRQHandler                                  ../../../../1_Processor/STM32F4/BSPLIB/pwm_in.o
                                                  ../../../../1_Processor/STM32F4/STM32F4-Discovery_FW_V1.1.0/Libraries/CMSIS/ST/STM32F4xx/Source/Templates/gcc_ride7/startup_stm32f4xx.o
EXTI0_NVIC_Configuration                          ../../../../1_Processor/STM32F4/BSPLIB/nvic.o
                                                  ../../../../1_Processor/STM32F4/BSPLIB/pwm_in.o
EXTI15_10_IRQHandler                              ../../../../1_Processor/STM32F4/STM32F4-Discovery_FW_V1.1.0/Libraries/CMSIS/ST/STM32F4xx/Source/Templates/gcc_ride7/startup_stm32f4xx.o
EXTI15_10_NVIC_Configuration                      ../../../../1_Processor/STM32F4/BSPLIB/nvic.o
EXTI1_IRQHandler                                  ../../../../1_Processor/STM32F4/BSPLIB/pwm_in.o
                                                  ../../../../1_Processor/STM32F4/STM32F4-Discovery_FW_V1.1.0/Libraries/CMSIS/ST/STM32F4xx/Source/Templates/gcc_ride7/startup_stm32f4xx.o
EXTI1_NVIC_Configuration                          ../../../../1_Processor/STM32F4/BSPLIB/nvic.o
                                                  ../../../../1_Processor/STM32F4/BSPLIB/pwm_in.o
EXTI2_IRQHandler                                  ../../../../1_Processor/STM32F4/BSPLIB/pwm_in.o
                                                  ../../../../1_Processor/STM32F4/STM32F4-Discovery_FW_V1.1.0/Libraries/CMSIS/ST/STM32F4xx/Source/Templates/gcc_ride7/startup_stm32f4xx.o
EXTI2_NVIC_Configuration                          ../../../../1_Processor/STM32F4/BSPLIB/nvic.o
                                                  ../../../../1_Processor/STM32F4/BSPLIB/pwm_in.o
EXTI3_IRQHandler                                  ../../../../1_Processor/STM32F4/BSPLIB/pwm_in.o
                                                  ../../../../1_Processor/STM32F4/STM32F4-Discovery_FW_V1.1.0/Libraries/CMSIS/ST/STM32F4xx/Source/Templates/gcc_ride7/startup_stm32f4xx.o
EXTI3_NVIC_Configuration                          ../../../../1_Processor/STM32F4/BSPLIB/nvic.o
                                                  ../../../../1_Processor/STM32F4/BSPLIB/pwm_in.o
EXTI4_IRQHandler                                  ../../../../1_Processor/STM32F4/BSPLIB/pwm_in.o
                                                  ../../../../1_Processor/STM32F4/STM32F4-Discovery_FW_V1.1.0/Libraries/CMSIS/ST/STM32F4xx/Source/Templates/gcc_ride7/startup_stm32f4xx.o
EXTI4_NVIC_Configuration                          ../../../../1_Processor/STM32F4/BSPLIB/nvic.o
                                                  ../../../../1_Processor/STM32F4/BSPLIB/pwm_in.o
EXTI9_5_IRQHandler                                ../../../../1_Processor/STM32F4/STM32F4-Discovery_FW_V1.1.0/Libraries/CMSIS/ST/STM32F4xx/Source/Templates/gcc_ride7/startup_stm32f4xx.o
EXTI9_5_NVIC_Configuration                        ../../../../1_Processor/STM32F4/BSPLIB/nvic.o
EXTI_ClearFlag                                    ../../../../1_Processor/STM32F4/STM32F4-Discovery_FW_V1.1.0/Libraries/STM32F4xx_StdPeriph_Driver/src/stm32f4xx_exti.o
EXTI_ClearITPendingBit                            ../../../../1_Processor/STM32F4/STM32F4-Discovery_FW_V1.1.0/Libraries/STM32F4xx_StdPeriph_Driver/src/stm32f4xx_exti.o
                                                  ../../../../1_Processor/STM32F4/BSPLIB/rtc.o
                                                  ../../../../1_Processor/STM32F4/BSPLIB/pwm_in.o
EXTI_DeInit                                       ../../../../1_Processor/STM32F4/STM32F4-Discovery_FW_V1.1.0/Libraries/STM32F4xx_StdPeriph_Driver/src/stm32f4xx_exti.o
EXTI_GenerateSWInterrupt                          ../../../../1_Processor/STM32F4/STM32F4-Discovery_FW_V1.1.0/Libraries/STM32F4xx_StdPeriph_Driver/src/stm32f4xx_exti.o
EXTI_GetFlagStatus                                ../../../../1_Processor/STM32F4/STM32F4-Discovery_FW_V1.1.0/Libraries/STM32F4xx_StdPeriph_Driver/src/stm32f4xx_exti.o
EXTI_GetITStatus                                  ../../../../1_Processor/STM32F4/STM32F4-Discovery_FW_V1.1.0/Libraries/STM32F4xx_StdPeriph_Driver/src/stm32f4xx_exti.o
EXTI_Init                                         ../../../../1_Processor/STM32F4/STM32F4-Discovery_FW_V1.1.0/Libraries/STM32F4xx_StdPeriph_Driver/src/stm32f4xx_exti.o
                                                  ../../../../1_Processor/STM32F4/BSPLIB/wdg_wkup.o
                                                  ../../../../1_Processor/STM32F4/BSPLIB/rtc.o
                                                  ../../../../1_Processor/STM32F4/BSPLIB/pwm_in.o
EXTI_StructInit                                   ../../../../1_Processor/STM32F4/STM32F4-Discovery_FW_V1.1.0/Libraries/STM32F4xx_StdPeriph_Driver/src/stm32f4xx_exti.o
FLASH_ClearFlag                                   ../../../../1_Processor/STM32F4/STM32F4-Discovery_FW_V1.1.0/Libraries/STM32F4xx_StdPeriph_Driver/src/stm32f4xx_flash.o
FLASH_DataCacheCmd                                ../../../../1_Processor/STM32F4/STM32F4-Discovery_FW_V1.1.0/Libraries/STM32F4xx_StdPeriph_Driver/src/stm32f4xx_flash.o
                                                  ../../../../1_Processor/STM32F4/BSPLIB/flash.o
FLASH_DataCacheReset                              ../../../../1_Processor/STM32F4/STM32F4-Discovery_FW_V1.1.0/Libraries/STM32F4xx_StdPeriph_Driver/src/stm32f4xx_flash.o
FLASH_EraseAllSectors                             ../../../../1_Processor/STM32F4/STM32F4-Discovery_FW_V1.1.0/Libraries/STM32F4xx_StdPeriph_Driver/src/stm32f4xx_flash.o
FLASH_EraseSector                                 ../../../../1_Processor/STM32F4/STM32F4-Discovery_FW_V1.1.0/Libraries/STM32F4xx_StdPeriph_Driver/src/stm32f4xx_flash.o
                                                  ../../../../1_Processor/STM32F4/BSPLIB/flash.o
FLASH_GetFlagStatus                               ../../../../1_Processor/STM32F4/STM32F4-Discovery_FW_V1.1.0/Libraries/STM32F4xx_StdPeriph_Driver/src/stm32f4xx_flash.o
FLASH_GetStatus                                   ../../../../1_Processor/STM32F4/STM32F4-Discovery_FW_V1.1.0/Libraries/STM32F4xx_StdPeriph_Driver/src/stm32f4xx_flash.o
FLASH_IRQHandler                                  ../../../../1_Processor/STM32F4/STM32F4-Discovery_FW_V1.1.0/Libraries/CMSIS/ST/STM32F4xx/Source/Templates/gcc_ride7/startup_stm32f4xx.o
FLASH_ITConfig                                    ../../../../1_Processor/STM32F4/STM32F4-Discovery_FW_V1.1.0/Libraries/STM32F4xx_StdPeriph_Driver/src/stm32f4xx_flash.o
FLASH_InstructionCacheCmd                         ../../../../1_Processor/STM32F4/STM32F4-Discovery_FW_V1.1.0/Libraries/STM32F4xx_StdPeriph_Driver/src/stm32f4xx_flash.o
FLASH_InstructionCacheReset                       ../../../../1_Processor/STM32F4/STM32F4-Discovery_FW_V1.1.0/Libraries/STM32F4xx_StdPeriph_Driver/src/stm32f4xx_flash.o
FLASH_Lock                                        ../../../../1_Processor/STM32F4/STM32F4-Discovery_FW_V1.1.0/Libraries/STM32F4xx_StdPeriph_Driver/src/stm32f4xx_flash.o
                                                  ../../../../1_Processor/STM32F4/BSPLIB/flash.o
FLASH_OB_BORConfig                                ../../../../1_Processor/STM32F4/STM32F4-Discovery_FW_V1.1.0/Libraries/STM32F4xx_StdPeriph_Driver/src/stm32f4xx_flash.o
FLASH_OB_GetBOR                                   ../../../../1_Processor/STM32F4/STM32F4-Discovery_FW_V1.1.0/Libraries/STM32F4xx_StdPeriph_Driver/src/stm32f4xx_flash.o
FLASH_OB_GetRDP                                   ../../../../1_Processor/STM32F4/STM32F4-Discovery_FW_V1.1.0/Libraries/STM32F4xx_StdPeriph_Driver/src/stm32f4xx_flash.o
FLASH_OB_GetUser                                  ../../../../1_Processor/STM32F4/STM32F4-Discovery_FW_V1.1.0/Libraries/STM32F4xx_StdPeriph_Driver/src/stm32f4xx_flash.o
FLASH_OB_GetWRP                                   ../../../../1_Processor/STM32F4/STM32F4-Discovery_FW_V1.1.0/Libraries/STM32F4xx_StdPeriph_Driver/src/stm32f4xx_flash.o
FLASH_OB_Launch                                   ../../../../1_Processor/STM32F4/STM32F4-Discovery_FW_V1.1.0/Libraries/STM32F4xx_StdPeriph_Driver/src/stm32f4xx_flash.o
FLASH_OB_Lock                                     ../../../../1_Processor/STM32F4/STM32F4-Discovery_FW_V1.1.0/Libraries/STM32F4xx_StdPeriph_Driver/src/stm32f4xx_flash.o
FLASH_OB_RDPConfig                                ../../../../1_Processor/STM32F4/STM32F4-Discovery_FW_V1.1.0/Libraries/STM32F4xx_StdPeriph_Driver/src/stm32f4xx_flash.o
FLASH_OB_Unlock                                   ../../../../1_Processor/STM32F4/STM32F4-Discovery_FW_V1.1.0/Libraries/STM32F4xx_StdPeriph_Driver/src/stm32f4xx_flash.o
FLASH_OB_UserConfig                               ../../../../1_Processor/STM32F4/STM32F4-Discovery_FW_V1.1.0/Libraries/STM32F4xx_StdPeriph_Driver/src/stm32f4xx_flash.o
FLASH_OB_WRPConfig                                ../../../../1_Processor/STM32F4/STM32F4-Discovery_FW_V1.1.0/Libraries/STM32F4xx_StdPeriph_Driver/src/stm32f4xx_flash.o
FLASH_PrefetchBufferCmd                           ../../../../1_Processor/STM32F4/STM32F4-Discovery_FW_V1.1.0/Libraries/STM32F4xx_StdPeriph_Driver/src/stm32f4xx_flash.o
FLASH_ProgramByte                                 ../../../../1_Processor/STM32F4/STM32F4-Discovery_FW_V1.1.0/Libraries/STM32F4xx_StdPeriph_Driver/src/stm32f4xx_flash.o
FLASH_ProgramDoubleWord                           ../../../../1_Processor/STM32F4/STM32F4-Discovery_FW_V1.1.0/Libraries/STM32F4xx_StdPeriph_Driver/src/stm32f4xx_flash.o
FLASH_ProgramHalfWord                             ../../../../1_Processor/STM32F4/STM32F4-Discovery_FW_V1.1.0/Libraries/STM32F4xx_StdPeriph_Driver/src/stm32f4xx_flash.o
FLASH_ProgramWord                                 ../../../../1_Processor/STM32F4/STM32F4-Discovery_FW_V1.1.0/Libraries/STM32F4xx_StdPeriph_Driver/src/stm32f4xx_flash.o
                                                  ../../../../1_Processor/STM32F4/BSPLIB/flash.o
FLASH_SetLatency                                  ../../../../1_Processor/STM32F4/STM32F4-Discovery_FW_V1.1.0/Libraries/STM32F4xx_StdPeriph_Driver/src/stm32f4xx_flash.o
FLASH_Unlock                                      ../../../../1_Processor/STM32F4/STM32F4-Discovery_FW_V1.1.0/Libraries/STM32F4xx_StdPeriph_Driver/src/stm32f4xx_flash.o
                                                  ../../../../1_Processor/STM32F4/BSPLIB/flash.o
FLASH_WaitForLastOperation                        ../../../../1_Processor/STM32F4/STM32F4-Discovery_FW_V1.1.0/Libraries/STM32F4xx_StdPeriph_Driver/src/stm32f4xx_flash.o
FPU_IRQHandler                                    ../../../../1_Processor/STM32F4/STM32F4-Discovery_FW_V1.1.0/Libraries/CMSIS/ST/STM32F4xx/Source/Templates/gcc_ride7/startup_stm32f4xx.o
FSMC_ClearFlag                                    ../../../../1_Processor/STM32F4/STM32F4-Discovery_FW_V1.1.0/Libraries/STM32F4xx_StdPeriph_Driver/src/stm32f4xx_fsmc.o
FSMC_ClearITPendingBit                            ../../../../1_Processor/STM32F4/STM32F4-Discovery_FW_V1.1.0/Libraries/STM32F4xx_StdPeriph_Driver/src/stm32f4xx_fsmc.o
FSMC_GetECC                                       ../../../../1_Processor/STM32F4/STM32F4-Discovery_FW_V1.1.0/Libraries/STM32F4xx_StdPeriph_Driver/src/stm32f4xx_fsmc.o
FSMC_GetFlagStatus                                ../../../../1_Processor/STM32F4/STM32F4-Discovery_FW_V1.1.0/Libraries/STM32F4xx_StdPeriph_Driver/src/stm32f4xx_fsmc.o
FSMC_GetITStatus                                  ../../../../1_Processor/STM32F4/STM32F4-Discovery_FW_V1.1.0/Libraries/STM32F4xx_StdPeriph_Driver/src/stm32f4xx_fsmc.o
FSMC_IRQHandler                                   ../../../../1_Processor/STM32F4/STM32F4-Discovery_FW_V1.1.0/Libraries/CMSIS/ST/STM32F4xx/Source/Templates/gcc_ride7/startup_stm32f4xx.o
FSMC_ITConfig                                     ../../../../1_Processor/STM32F4/STM32F4-Discovery_FW_V1.1.0/Libraries/STM32F4xx_StdPeriph_Driver/src/stm32f4xx_fsmc.o
FSMC_NANDCmd                                      ../../../../1_Processor/STM32F4/STM32F4-Discovery_FW_V1.1.0/Libraries/STM32F4xx_StdPeriph_Driver/src/stm32f4xx_fsmc.o
FSMC_NANDDeInit                                   ../../../../1_Processor/STM32F4/STM32F4-Discovery_FW_V1.1.0/Libraries/STM32F4xx_StdPeriph_Driver/src/stm32f4xx_fsmc.o
FSMC_NANDECCCmd                                   ../../../../1_Processor/STM32F4/STM32F4-Discovery_FW_V1.1.0/Libraries/STM32F4xx_StdPeriph_Driver/src/stm32f4xx_fsmc.o
FSMC_NANDInit                                     ../../../../1_Processor/STM32F4/STM32F4-Discovery_FW_V1.1.0/Libraries/STM32F4xx_StdPeriph_Driver/src/stm32f4xx_fsmc.o
FSMC_NANDStructInit                               ../../../../1_Processor/STM32F4/STM32F4-Discovery_FW_V1.1.0/Libraries/STM32F4xx_StdPeriph_Driver/src/stm32f4xx_fsmc.o
FSMC_NORSRAMCmd                                   ../../../../1_Processor/STM32F4/STM32F4-Discovery_FW_V1.1.0/Libraries/STM32F4xx_StdPeriph_Driver/src/stm32f4xx_fsmc.o
FSMC_NORSRAMDeInit                                ../../../../1_Processor/STM32F4/STM32F4-Discovery_FW_V1.1.0/Libraries/STM32F4xx_StdPeriph_Driver/src/stm32f4xx_fsmc.o
FSMC_NORSRAMInit                                  ../../../../1_Processor/STM32F4/STM32F4-Discovery_FW_V1.1.0/Libraries/STM32F4xx_StdPeriph_Driver/src/stm32f4xx_fsmc.o
FSMC_NORSRAMStructInit                            ../../../../1_Processor/STM32F4/STM32F4-Discovery_FW_V1.1.0/Libraries/STM32F4xx_StdPeriph_Driver/src/stm32f4xx_fsmc.o
FSMC_PCCARDCmd                                    ../../../../1_Processor/STM32F4/STM32F4-Discovery_FW_V1.1.0/Libraries/STM32F4xx_StdPeriph_Driver/src/stm32f4xx_fsmc.o
FSMC_PCCARDDeInit                                 ../../../../1_Processor/STM32F4/STM32F4-Discovery_FW_V1.1.0/Libraries/STM32F4xx_StdPeriph_Driver/src/stm32f4xx_fsmc.o
FSMC_PCCARDInit                                   ../../../../1_Processor/STM32F4/STM32F4-Discovery_FW_V1.1.0/Libraries/STM32F4xx_StdPeriph_Driver/src/stm32f4xx_fsmc.o
FSMC_PCCARDStructInit                             ../../../../1_Processor/STM32F4/STM32F4-Discovery_FW_V1.1.0/Libraries/STM32F4xx_StdPeriph_Driver/src/stm32f4xx_fsmc.o
GPIO_DeInit                                       ../../../../1_Processor/STM32F4/STM32F4-Discovery_FW_V1.1.0/Libraries/STM32F4xx_StdPeriph_Driver/src/stm32f4xx_gpio.o
GPIO_Init                                         ../../../../1_Processor/STM32F4/STM32F4-Discovery_FW_V1.1.0/Libraries/STM32F4xx_StdPeriph_Driver/src/stm32f4xx_gpio.o
                                                  ../../../../1_Processor/BoardAbstract/control_unit_v1.o
                                                  ../../../../1_Processor/STM32F4/BSPLIB/wdg_wkup.o
                                                  ../../../../1_Processor/STM32F4/BSPLIB/usart.o
                                                  ../../../../1_Processor/STM32F4/BSPLIB/spi.o
                                                  ../../../../1_Processor/STM32F4/BSPLIB/pwm_out.o
                                                  ../../../../1_Processor/STM32F4/BSPLIB/pwm_in.o
                                                  ../../../../1_Processor/STM32F4/BSPLIB/i2c.o
                                                  ../../../../1_Processor/STM32F4/BSPLIB/encoder.o
                                                  ../../../../1_Processor/STM32F4/BSPLIB/can.o
                                                  ../../../../1_Processor/STM32F4/BSPLIB/adc_dac.o
GPIO_PinAFConfig                                  ../../../../1_Processor/STM32F4/STM32F4-Discovery_FW_V1.1.0/Libraries/STM32F4xx_StdPeriph_Driver/src/stm32f4xx_gpio.o
                                                  ../../../../1_Processor/STM32F4/BSPLIB/usart.o
                                                  ../../../../1_Processor/STM32F4/BSPLIB/spi.o
                                                  ../../../../1_Processor/STM32F4/BSPLIB/pwm_out.o
                                                  ../../../../1_Processor/STM32F4/BSPLIB/encoder.o
                                                  ../../../../1_Processor/STM32F4/BSPLIB/can.o
GPIO_PinLockConfig                                ../../../../1_Processor/STM32F4/STM32F4-Discovery_FW_V1.1.0/Libraries/STM32F4xx_StdPeriph_Driver/src/stm32f4xx_gpio.o
GPIO_ReadInputData                                ../../../../1_Processor/STM32F4/STM32F4-Discovery_FW_V1.1.0/Libraries/STM32F4xx_StdPeriph_Driver/src/stm32f4xx_gpio.o
GPIO_ReadInputDataBit                             ../../../../1_Processor/STM32F4/STM32F4-Discovery_FW_V1.1.0/Libraries/STM32F4xx_StdPeriph_Driver/src/stm32f4xx_gpio.o
                                                  ../../../../1_Processor/STM32F4/BSPLIB/wdg_wkup.o
                                                  ../../../../1_Processor/STM32F4/BSPLIB/pwm_in.o
GPIO_ReadOutputData                               ../../../../1_Processor/STM32F4/STM32F4-Discovery_FW_V1.1.0/Libraries/STM32F4xx_StdPeriph_Driver/src/stm32f4xx_gpio.o
GPIO_ReadOutputDataBit                            ../../../../1_Processor/STM32F4/STM32F4-Discovery_FW_V1.1.0/Libraries/STM32F4xx_StdPeriph_Driver/src/stm32f4xx_gpio.o
GPIO_ResetBits                                    ../../../../1_Processor/STM32F4/STM32F4-Discovery_FW_V1.1.0/Libraries/STM32F4xx_StdPeriph_Driver/src/stm32f4xx_gpio.o
                                                  ../../../../1_Processor/BoardAbstract/control_unit_v1.o
GPIO_SetBits                                      ../../../../1_Processor/STM32F4/STM32F4-Discovery_FW_V1.1.0/Libraries/STM32F4xx_StdPeriph_Driver/src/stm32f4xx_gpio.o
                                                  ../../../../1_Processor/BoardAbstract/control_unit_v1.o
                                                  ../../../../1_Processor/STM32F4/BSPLIB/spi.o
GPIO_StructInit                                   ../../../../1_Processor/STM32F4/STM32F4-Discovery_FW_V1.1.0/Libraries/STM32F4xx_StdPeriph_Driver/src/stm32f4xx_gpio.o
                                                  ../../../../1_Processor/BoardAbstract/control_unit_v1.o
                                                  ../../../../1_Processor/STM32F4/BSPLIB/usart.o
                                                  ../../../../1_Processor/STM32F4/BSPLIB/spi.o
                                                  ../../../../1_Processor/STM32F4/BSPLIB/encoder.o
                                                  ../../../../1_Processor/STM32F4/BSPLIB/can.o
GPIO_ToggleBits                                   ../../../../1_Processor/STM32F4/STM32F4-Discovery_FW_V1.1.0/Libraries/STM32F4xx_StdPeriph_Driver/src/stm32f4xx_gpio.o
                                                  ../../../../1_Processor/BoardAbstract/control_unit_v1.o
GPIO_Write                                        ../../../../1_Processor/STM32F4/STM32F4-Discovery_FW_V1.1.0/Libraries/STM32F4xx_StdPeriph_Driver/src/stm32f4xx_gpio.o
GPIO_WriteBit                                     ../../../../1_Processor/STM32F4/STM32F4-Discovery_FW_V1.1.0/Libraries/STM32F4xx_StdPeriph_Driver/src/stm32f4xx_gpio.o
HASH_ClearFlag                                    ../../../../1_Processor/STM32F4/STM32F4-Discovery_FW_V1.1.0/Libraries/STM32F4xx_StdPeriph_Driver/src/stm32f4xx_hash.o
HASH_ClearITPendingBit                            ../../../../1_Processor/STM32F4/STM32F4-Discovery_FW_V1.1.0/Libraries/STM32F4xx_StdPeriph_Driver/src/stm32f4xx_hash.o
HASH_DMACmd                                       ../../../../1_Processor/STM32F4/STM32F4-Discovery_FW_V1.1.0/Libraries/STM32F4xx_StdPeriph_Driver/src/stm32f4xx_hash.o
HASH_DataIn                                       ../../../../1_Processor/STM32F4/STM32F4-Discovery_FW_V1.1.0/Libraries/STM32F4xx_StdPeriph_Driver/src/stm32f4xx_hash.o
                                                  ../../../../1_Processor/STM32F4/STM32F4-Discovery_FW_V1.1.0/Libraries/STM32F4xx_StdPeriph_Driver/src/stm32f4xx_hash_sha1.o
                                                  ../../../../1_Processor/STM32F4/STM32F4-Discovery_FW_V1.1.0/Libraries/STM32F4xx_StdPeriph_Driver/src/stm32f4xx_hash_md5.o
HASH_DeInit                                       ../../../../1_Processor/STM32F4/STM32F4-Discovery_FW_V1.1.0/Libraries/STM32F4xx_StdPeriph_Driver/src/stm32f4xx_hash.o
                                                  ../../../../1_Processor/STM32F4/STM32F4-Discovery_FW_V1.1.0/Libraries/STM32F4xx_StdPeriph_Driver/src/stm32f4xx_hash_sha1.o
                                                  ../../../../1_Processor/STM32F4/STM32F4-Discovery_FW_V1.1.0/Libraries/STM32F4xx_StdPeriph_Driver/src/stm32f4xx_hash_md5.o
HASH_GetDigest                                    ../../../../1_Processor/STM32F4/STM32F4-Discovery_FW_V1.1.0/Libraries/STM32F4xx_StdPeriph_Driver/src/stm32f4xx_hash.o
                                                  ../../../../1_Processor/STM32F4/STM32F4-Discovery_FW_V1.1.0/Libraries/STM32F4xx_StdPeriph_Driver/src/stm32f4xx_hash_sha1.o
                                                  ../../../../1_Processor/STM32F4/STM32F4-Discovery_FW_V1.1.0/Libraries/STM32F4xx_StdPeriph_Driver/src/stm32f4xx_hash_md5.o
HASH_GetFlagStatus                                ../../../../1_Processor/STM32F4/STM32F4-Discovery_FW_V1.1.0/Libraries/STM32F4xx_StdPeriph_Driver/src/stm32f4xx_hash.o
                                                  ../../../../1_Processor/STM32F4/STM32F4-Discovery_FW_V1.1.0/Libraries/STM32F4xx_StdPeriph_Driver/src/stm32f4xx_hash_sha1.o
                                                  ../../../../1_Processor/STM32F4/STM32F4-Discovery_FW_V1.1.0/Libraries/STM32F4xx_StdPeriph_Driver/src/stm32f4xx_hash_md5.o
HASH_GetITStatus                                  ../../../../1_Processor/STM32F4/STM32F4-Discovery_FW_V1.1.0/Libraries/STM32F4xx_StdPeriph_Driver/src/stm32f4xx_hash.o
HASH_GetInFIFOWordsNbr                            ../../../../1_Processor/STM32F4/STM32F4-Discovery_FW_V1.1.0/Libraries/STM32F4xx_StdPeriph_Driver/src/stm32f4xx_hash.o
HASH_ITConfig                                     ../../../../1_Processor/STM32F4/STM32F4-Discovery_FW_V1.1.0/Libraries/STM32F4xx_StdPeriph_Driver/src/stm32f4xx_hash.o
HASH_Init                                         ../../../../1_Processor/STM32F4/STM32F4-Discovery_FW_V1.1.0/Libraries/STM32F4xx_StdPeriph_Driver/src/stm32f4xx_hash.o
                                                  ../../../../1_Processor/STM32F4/STM32F4-Discovery_FW_V1.1.0/Libraries/STM32F4xx_StdPeriph_Driver/src/stm32f4xx_hash_sha1.o
                                                  ../../../../1_Processor/STM32F4/STM32F4-Discovery_FW_V1.1.0/Libraries/STM32F4xx_StdPeriph_Driver/src/stm32f4xx_hash_md5.o
HASH_MD5                                          ../../../../1_Processor/STM32F4/STM32F4-Discovery_FW_V1.1.0/Libraries/STM32F4xx_StdPeriph_Driver/src/stm32f4xx_hash_md5.o
HASH_RNG_IRQHandler                               ../../../../1_Processor/STM32F4/STM32F4-Discovery_FW_V1.1.0/Libraries/CMSIS/ST/STM32F4xx/Source/Templates/gcc_ride7/startup_stm32f4xx.o
HASH_Reset                                        ../../../../1_Processor/STM32F4/STM32F4-Discovery_FW_V1.1.0/Libraries/STM32F4xx_StdPeriph_Driver/src/stm32f4xx_hash.o
HASH_RestoreContext                               ../../../../1_Processor/STM32F4/STM32F4-Discovery_FW_V1.1.0/Libraries/STM32F4xx_StdPeriph_Driver/src/stm32f4xx_hash.o
HASH_SHA1                                         ../../../../1_Processor/STM32F4/STM32F4-Discovery_FW_V1.1.0/Libraries/STM32F4xx_StdPeriph_Driver/src/stm32f4xx_hash_sha1.o
HASH_SaveContext                                  ../../../../1_Processor/STM32F4/STM32F4-Discovery_FW_V1.1.0/Libraries/STM32F4xx_StdPeriph_Driver/src/stm32f4xx_hash.o
HASH_SetLastWordValidBitsNbr                      ../../../../1_Processor/STM32F4/STM32F4-Discovery_FW_V1.1.0/Libraries/STM32F4xx_StdPeriph_Driver/src/stm32f4xx_hash.o
                                                  ../../../../1_Processor/STM32F4/STM32F4-Discovery_FW_V1.1.0/Libraries/STM32F4xx_StdPeriph_Driver/src/stm32f4xx_hash_sha1.o
                                                  ../../../../1_Processor/STM32F4/STM32F4-Discovery_FW_V1.1.0/Libraries/STM32F4xx_StdPeriph_Driver/src/stm32f4xx_hash_md5.o
HASH_StartDigest                                  ../../../../1_Processor/STM32F4/STM32F4-Discovery_FW_V1.1.0/Libraries/STM32F4xx_StdPeriph_Driver/src/stm32f4xx_hash.o
                                                  ../../../../1_Processor/STM32F4/STM32F4-Discovery_FW_V1.1.0/Libraries/STM32F4xx_StdPeriph_Driver/src/stm32f4xx_hash_sha1.o
                                                  ../../../../1_Processor/STM32F4/STM32F4-Discovery_FW_V1.1.0/Libraries/STM32F4xx_StdPeriph_Driver/src/stm32f4xx_hash_md5.o
HASH_StructInit                                   ../../../../1_Processor/STM32F4/STM32F4-Discovery_FW_V1.1.0/Libraries/STM32F4xx_StdPeriph_Driver/src/stm32f4xx_hash.o
HF_ADC_Moder_Init                                 ../../../../1_Processor/STM32F4/BSPLIB/adc_dac.o
                                                  ../../../../1_Processor/BoardAbstract/control_unit_v1.o
HF_CANTX_Message                                  ../../../../1_Processor/STM32F4/BSPLIB/can.o
HF_CAN_Init                                       ../../../../1_Processor/STM32F4/BSPLIB/can.o
HF_DAC_Init                                       ../../../../1_Processor/STM32F4/BSPLIB/adc_dac.o
HF_DAC_Set_Vol                                    ../../../../1_Processor/STM32F4/BSPLIB/adc_dac.o
HF_Encoder_Init                                   ../../../../1_Processor/STM32F4/BSPLIB/encoder.o
                                                  ../../../../1_Processor/BoardAbstract/control_unit_v1.o
HF_Flash_GetFlashSector                           ../../../../1_Processor/STM32F4/BSPLIB/flash.o
HF_Flash_Read                                     ../../../../1_Processor/STM32F4/BSPLIB/flash.o
HF_Flash_ReadWord                                 ../../../../1_Processor/STM32F4/BSPLIB/flash.o
HF_Flash_Write                                    ../../../../1_Processor/STM32F4/BSPLIB/flash.o
HF_Get_ADC_Output                                 ../../../../1_Processor/STM32F4/BSPLIB/adc_dac.o
                                                  ../../../../1_Processor/BoardAbstract/control_unit_v1.o
HF_Get_Dtime                                      ../../../../1_Processor/STM32F4/BSPLIB/delay.o
HF_Get_Encode_TIM2                                ../../../../1_Processor/STM32F4/BSPLIB/encoder.o
                                                  ../../../../1_Processor/BoardAbstract/control_unit_v1.o
HF_Get_Encode_TIM3                                ../../../../1_Processor/STM32F4/BSPLIB/encoder.o
                                                  ../../../../1_Processor/BoardAbstract/control_unit_v1.o
HF_Get_Encode_TIM4                                ../../../../1_Processor/STM32F4/BSPLIB/encoder.o
                                                  ../../../../1_Processor/BoardAbstract/control_unit_v1.o
HF_Get_Encode_TIM5                                ../../../../1_Processor/STM32F4/BSPLIB/encoder.o
HF_Get_PWM_Value                                  ../../../../1_Processor/STM32F4/BSPLIB/pwm_in.o
HF_Get_System_Time                                ../../../../1_Processor/STM32F4/BSPLIB/delay.o
                                                  ../../../../1_Processor/BoardAbstract/control_unit_v1.o
                                                  ../../../../1_Processor/STM32F4/BSPLIB/pwm_in.o
HF_Hardware_I2C_Init                              ../../../../1_Processor/STM32F4/BSPLIB/i2c.o
HF_Hardware_I2C_Read_Buf                          ../../../../1_Processor/STM32F4/BSPLIB/i2c.o
HF_Hardware_I2C_Read_Byte                         ../../../../1_Processor/STM32F4/BSPLIB/i2c.o
HF_Hardware_I2C_Write_Buf                         ../../../../1_Processor/STM32F4/BSPLIB/i2c.o
HF_Hardware_I2C_Write_Byte                        ../../../../1_Processor/STM32F4/BSPLIB/i2c.o
HF_IWDG_Feed                                      ../../../../1_Processor/STM32F4/BSPLIB/wdg_wkup.o
HF_IWDG_Init                                      ../../../../1_Processor/STM32F4/BSPLIB/wdg_wkup.o
HF_PWMIN_Init                                     ../../../../1_Processor/STM32F4/BSPLIB/pwm_in.o
HF_PWMOut_Init                                    ../../../../1_Processor/STM32F4/BSPLIB/pwm_out.o
                                                  ../../../../1_Processor/BoardAbstract/control_unit_v1.o
HF_PWM_Set_TIM12_CCR1                             ../../../../1_Processor/STM32F4/BSPLIB/pwm_out.o
                                                  ../../../../1_Processor/BoardAbstract/control_unit_v1.o
HF_PWM_Set_TIM12_CCR2                             ../../../../1_Processor/STM32F4/BSPLIB/pwm_out.o
                                                  ../../../../1_Processor/BoardAbstract/control_unit_v1.o
HF_PWM_Set_TIM1_CCR1                              ../../../../1_Processor/STM32F4/BSPLIB/pwm_out.o
                                                  ../../../../1_Processor/BoardAbstract/control_unit_v1.o
HF_PWM_Set_TIM1_CCR2                              ../../../../1_Processor/STM32F4/BSPLIB/pwm_out.o
                                                  ../../../../1_Processor/BoardAbstract/control_unit_v1.o
HF_PWM_Set_TIM1_CCR3                              ../../../../1_Processor/STM32F4/BSPLIB/pwm_out.o
                                                  ../../../../1_Processor/BoardAbstract/control_unit_v1.o
HF_PWM_Set_TIM1_CCR4                              ../../../../1_Processor/STM32F4/BSPLIB/pwm_out.o
                                                  ../../../../1_Processor/BoardAbstract/control_unit_v1.o
HF_PWM_Set_TIM8_CCR1                              ../../../../1_Processor/STM32F4/BSPLIB/pwm_out.o
HF_PWM_Set_TIM8_CCR2                              ../../../../1_Processor/STM32F4/BSPLIB/pwm_out.o
HF_PWM_Set_TIM8_CCR3                              ../../../../1_Processor/STM32F4/BSPLIB/pwm_out.o
HF_PWM_Set_TIM8_CCR4                              ../../../../1_Processor/STM32F4/BSPLIB/pwm_out.o
HF_PWM_Set_TIM9_CCR1                              ../../../../1_Processor/STM32F4/BSPLIB/pwm_out.o
HF_PWM_Set_TIM9_CCR2                              ../../../../1_Processor/STM32F4/BSPLIB/pwm_out.o
HF_RTC_Init                                       ../../../../1_Processor/STM32F4/BSPLIB/rtc.o
HF_RTC_Time_Renew                                 ../../../../1_Processor/STM32F4/BSPLIB/rtc.o
HF_SPI_Init                                       ../../../../1_Processor/STM32F4/BSPLIB/spi.o
HF_SPI_ReadWriteByte                              ../../../../1_Processor/STM32F4/BSPLIB/spi.o
HF_Simulat_I2C_Init                               ../../../../1_Processor/STM32F4/BSPLIB/i2c.o
                                                  ../../../../1_Processor/BoardAbstract/control_unit_v1.o
HF_Simulat_I2C_Read_Buf                           ../../../../1_Processor/STM32F4/BSPLIB/i2c.o
                                                  ../../../../1_Processor/BoardAbstract/control_unit_v1.o
HF_Simulat_I2C_Read_Byte                          ../../../../1_Processor/STM32F4/BSPLIB/i2c.o
                                                  ../../../../1_Processor/BoardAbstract/control_unit_v1.o
HF_Simulat_I2C_Write_Buf                          ../../../../1_Processor/STM32F4/BSPLIB/i2c.o
                                                  ../../../../1_Processor/BoardAbstract/control_unit_v1.o
HF_Simulat_I2C_Write_Byte                         ../../../../1_Processor/STM32F4/BSPLIB/i2c.o
                                                  ../../../../1_Processor/BoardAbstract/control_unit_v1.o
HF_System_Timer_Init                              ../../../../1_Processor/STM32F4/BSPLIB/delay.o
                                                  ../../../../1_Processor/BoardAbstract/control_unit_v1.o
HF_Timer_Init                                     ../../../../1_Processor/STM32F4/BSPLIB/timer.o
                                                  ../../../../1_Processor/BoardAbstract/control_unit_v1.o
HF_USART_Init                                     ../../../../1_Processor/STM32F4/BSPLIB/usart.o
                                                  ../../../../1_Processor/BoardAbstract/control_unit_v1.o
HF_USART_Put_Char                                 ../../../../1_Processor/STM32F4/BSPLIB/usart.o
HF_USART_printf                                   ../../../../1_Processor/STM32F4/BSPLIB/usart.o
HF_WKUP_Init                                      ../../../../1_Processor/STM32F4/BSPLIB/wdg_wkup.o
HF_WWDG_IRQHandler                                ../../../../1_Processor/STM32F4/BSPLIB/wdg_wkup.o
HF_WWDG_Init                                      ../../../../1_Processor/STM32F4/BSPLIB/wdg_wkup.o
HF_WWDG_Set_Counter                               ../../../../1_Processor/STM32F4/BSPLIB/wdg_wkup.o
HMAC_MD5                                          ../../../../1_Processor/STM32F4/STM32F4-Discovery_FW_V1.1.0/Libraries/STM32F4xx_StdPeriph_Driver/src/stm32f4xx_hash_md5.o
HMAC_SHA1                                         ../../../../1_Processor/STM32F4/STM32F4-Discovery_FW_V1.1.0/Libraries/STM32F4xx_StdPeriph_Driver/src/stm32f4xx_hash_sha1.o
HardFault_Handler                                 ../../../../1_Processor/STM32F4/STM32F4-Discovery_FW_V1.1.0/Libraries/CMSIS/ST/STM32F4xx/Source/Templates/gcc_ride7/startup_stm32f4xx.o
I2C1_ER_IRQHandler                                ../../../../1_Processor/STM32F4/STM32F4-Discovery_FW_V1.1.0/Libraries/CMSIS/ST/STM32F4xx/Source/Templates/gcc_ride7/startup_stm32f4xx.o
I2C1_EV_IRQHandler                                ../../../../1_Processor/STM32F4/STM32F4-Discovery_FW_V1.1.0/Libraries/CMSIS/ST/STM32F4xx/Source/Templates/gcc_ride7/startup_stm32f4xx.o
I2C2_ER_IRQHandler                                ../../../../1_Processor/STM32F4/STM32F4-Discovery_FW_V1.1.0/Libraries/CMSIS/ST/STM32F4xx/Source/Templates/gcc_ride7/startup_stm32f4xx.o
I2C2_EV_IRQHandler                                ../../../../1_Processor/STM32F4/STM32F4-Discovery_FW_V1.1.0/Libraries/CMSIS/ST/STM32F4xx/Source/Templates/gcc_ride7/startup_stm32f4xx.o
I2C3_ER_IRQHandler                                ../../../../1_Processor/STM32F4/STM32F4-Discovery_FW_V1.1.0/Libraries/CMSIS/ST/STM32F4xx/Source/Templates/gcc_ride7/startup_stm32f4xx.o
I2C3_EV_IRQHandler                                ../../../../1_Processor/STM32F4/STM32F4-Discovery_FW_V1.1.0/Libraries/CMSIS/ST/STM32F4xx/Source/Templates/gcc_ride7/startup_stm32f4xx.o
I2C_ARPCmd                                        ../../../../1_Processor/STM32F4/STM32F4-Discovery_FW_V1.1.0/Libraries/STM32F4xx_StdPeriph_Driver/src/stm32f4xx_i2c.o
I2C_AcknowledgeConfig                             ../../../../1_Processor/STM32F4/STM32F4-Discovery_FW_V1.1.0/Libraries/STM32F4xx_StdPeriph_Driver/src/stm32f4xx_i2c.o
I2C_CalculatePEC                                  ../../../../1_Processor/STM32F4/STM32F4-Discovery_FW_V1.1.0/Libraries/STM32F4xx_StdPeriph_Driver/src/stm32f4xx_i2c.o
I2C_CheckEvent                                    ../../../../1_Processor/STM32F4/STM32F4-Discovery_FW_V1.1.0/Libraries/STM32F4xx_StdPeriph_Driver/src/stm32f4xx_i2c.o
I2C_ClearFlag                                     ../../../../1_Processor/STM32F4/STM32F4-Discovery_FW_V1.1.0/Libraries/STM32F4xx_StdPeriph_Driver/src/stm32f4xx_i2c.o
I2C_ClearITPendingBit                             ../../../../1_Processor/STM32F4/STM32F4-Discovery_FW_V1.1.0/Libraries/STM32F4xx_StdPeriph_Driver/src/stm32f4xx_i2c.o
I2C_Cmd                                           ../../../../1_Processor/STM32F4/STM32F4-Discovery_FW_V1.1.0/Libraries/STM32F4xx_StdPeriph_Driver/src/stm32f4xx_i2c.o
I2C_DMACmd                                        ../../../../1_Processor/STM32F4/STM32F4-Discovery_FW_V1.1.0/Libraries/STM32F4xx_StdPeriph_Driver/src/stm32f4xx_i2c.o
I2C_DMALastTransferCmd                            ../../../../1_Processor/STM32F4/STM32F4-Discovery_FW_V1.1.0/Libraries/STM32F4xx_StdPeriph_Driver/src/stm32f4xx_i2c.o
I2C_DeInit                                        ../../../../1_Processor/STM32F4/STM32F4-Discovery_FW_V1.1.0/Libraries/STM32F4xx_StdPeriph_Driver/src/stm32f4xx_i2c.o
I2C_DualAddressCmd                                ../../../../1_Processor/STM32F4/STM32F4-Discovery_FW_V1.1.0/Libraries/STM32F4xx_StdPeriph_Driver/src/stm32f4xx_i2c.o
I2C_FastModeDutyCycleConfig                       ../../../../1_Processor/STM32F4/STM32F4-Discovery_FW_V1.1.0/Libraries/STM32F4xx_StdPeriph_Driver/src/stm32f4xx_i2c.o
I2C_GeneralCallCmd                                ../../../../1_Processor/STM32F4/STM32F4-Discovery_FW_V1.1.0/Libraries/STM32F4xx_StdPeriph_Driver/src/stm32f4xx_i2c.o
I2C_GenerateSTART                                 ../../../../1_Processor/STM32F4/STM32F4-Discovery_FW_V1.1.0/Libraries/STM32F4xx_StdPeriph_Driver/src/stm32f4xx_i2c.o
I2C_GenerateSTOP                                  ../../../../1_Processor/STM32F4/STM32F4-Discovery_FW_V1.1.0/Libraries/STM32F4xx_StdPeriph_Driver/src/stm32f4xx_i2c.o
I2C_GetFlagStatus                                 ../../../../1_Processor/STM32F4/STM32F4-Discovery_FW_V1.1.0/Libraries/STM32F4xx_StdPeriph_Driver/src/stm32f4xx_i2c.o
I2C_GetITStatus                                   ../../../../1_Processor/STM32F4/STM32F4-Discovery_FW_V1.1.0/Libraries/STM32F4xx_StdPeriph_Driver/src/stm32f4xx_i2c.o
I2C_GetLastEvent                                  ../../../../1_Processor/STM32F4/STM32F4-Discovery_FW_V1.1.0/Libraries/STM32F4xx_StdPeriph_Driver/src/stm32f4xx_i2c.o
I2C_GetPEC                                        ../../../../1_Processor/STM32F4/STM32F4-Discovery_FW_V1.1.0/Libraries/STM32F4xx_StdPeriph_Driver/src/stm32f4xx_i2c.o
I2C_ITConfig                                      ../../../../1_Processor/STM32F4/STM32F4-Discovery_FW_V1.1.0/Libraries/STM32F4xx_StdPeriph_Driver/src/stm32f4xx_i2c.o
I2C_Init                                          ../../../../1_Processor/STM32F4/STM32F4-Discovery_FW_V1.1.0/Libraries/STM32F4xx_StdPeriph_Driver/src/stm32f4xx_i2c.o
I2C_NACKPositionConfig                            ../../../../1_Processor/STM32F4/STM32F4-Discovery_FW_V1.1.0/Libraries/STM32F4xx_StdPeriph_Driver/src/stm32f4xx_i2c.o
I2C_OwnAddress2Config                             ../../../../1_Processor/STM32F4/STM32F4-Discovery_FW_V1.1.0/Libraries/STM32F4xx_StdPeriph_Driver/src/stm32f4xx_i2c.o
I2C_PECPositionConfig                             ../../../../1_Processor/STM32F4/STM32F4-Discovery_FW_V1.1.0/Libraries/STM32F4xx_StdPeriph_Driver/src/stm32f4xx_i2c.o
I2C_ReadRegister                                  ../../../../1_Processor/STM32F4/STM32F4-Discovery_FW_V1.1.0/Libraries/STM32F4xx_StdPeriph_Driver/src/stm32f4xx_i2c.o
I2C_ReceiveData                                   ../../../../1_Processor/STM32F4/STM32F4-Discovery_FW_V1.1.0/Libraries/STM32F4xx_StdPeriph_Driver/src/stm32f4xx_i2c.o
I2C_SMBusAlertConfig                              ../../../../1_Processor/STM32F4/STM32F4-Discovery_FW_V1.1.0/Libraries/STM32F4xx_StdPeriph_Driver/src/stm32f4xx_i2c.o
I2C_Send7bitAddress                               ../../../../1_Processor/STM32F4/STM32F4-Discovery_FW_V1.1.0/Libraries/STM32F4xx_StdPeriph_Driver/src/stm32f4xx_i2c.o
I2C_SendData                                      ../../../../1_Processor/STM32F4/STM32F4-Discovery_FW_V1.1.0/Libraries/STM32F4xx_StdPeriph_Driver/src/stm32f4xx_i2c.o
I2C_SoftwareResetCmd                              ../../../../1_Processor/STM32F4/STM32F4-Discovery_FW_V1.1.0/Libraries/STM32F4xx_StdPeriph_Driver/src/stm32f4xx_i2c.o
I2C_StretchClockCmd                               ../../../../1_Processor/STM32F4/STM32F4-Discovery_FW_V1.1.0/Libraries/STM32F4xx_StdPeriph_Driver/src/stm32f4xx_i2c.o
I2C_StructInit                                    ../../../../1_Processor/STM32F4/STM32F4-Discovery_FW_V1.1.0/Libraries/STM32F4xx_StdPeriph_Driver/src/stm32f4xx_i2c.o
I2C_TransmitPEC                                   ../../../../1_Processor/STM32F4/STM32F4-Discovery_FW_V1.1.0/Libraries/STM32F4xx_StdPeriph_Driver/src/stm32f4xx_i2c.o
I2S_Cmd                                           ../../../../1_Processor/STM32F4/STM32F4-Discovery_FW_V1.1.0/Libraries/STM32F4xx_StdPeriph_Driver/src/stm32f4xx_spi.o
I2S_FullDuplexConfig                              ../../../../1_Processor/STM32F4/STM32F4-Discovery_FW_V1.1.0/Libraries/STM32F4xx_StdPeriph_Driver/src/stm32f4xx_spi.o
I2S_Init                                          ../../../../1_Processor/STM32F4/STM32F4-Discovery_FW_V1.1.0/Libraries/STM32F4xx_StdPeriph_Driver/src/stm32f4xx_spi.o
I2S_StructInit                                    ../../../../1_Processor/STM32F4/STM32F4-Discovery_FW_V1.1.0/Libraries/STM32F4xx_StdPeriph_Driver/src/stm32f4xx_spi.o
IWDG_Enable                                       ../../../../1_Processor/STM32F4/STM32F4-Discovery_FW_V1.1.0/Libraries/STM32F4xx_StdPeriph_Driver/src/stm32f4xx_iwdg.o
                                                  ../../../../1_Processor/STM32F4/BSPLIB/wdg_wkup.o
IWDG_GetFlagStatus                                ../../../../1_Processor/STM32F4/STM32F4-Discovery_FW_V1.1.0/Libraries/STM32F4xx_StdPeriph_Driver/src/stm32f4xx_iwdg.o
IWDG_ReloadCounter                                ../../../../1_Processor/STM32F4/STM32F4-Discovery_FW_V1.1.0/Libraries/STM32F4xx_StdPeriph_Driver/src/stm32f4xx_iwdg.o
                                                  ../../../../1_Processor/STM32F4/BSPLIB/wdg_wkup.o
IWDG_SetPrescaler                                 ../../../../1_Processor/STM32F4/STM32F4-Discovery_FW_V1.1.0/Libraries/STM32F4xx_StdPeriph_Driver/src/stm32f4xx_iwdg.o
                                                  ../../../../1_Processor/STM32F4/BSPLIB/wdg_wkup.o
IWDG_SetReload                                    ../../../../1_Processor/STM32F4/STM32F4-Discovery_FW_V1.1.0/Libraries/STM32F4xx_StdPeriph_Driver/src/stm32f4xx_iwdg.o
                                                  ../../../../1_Processor/STM32F4/BSPLIB/wdg_wkup.o
IWDG_WriteAccessCmd                               ../../../../1_Processor/STM32F4/STM32F4-Discovery_FW_V1.1.0/Libraries/STM32F4xx_StdPeriph_Driver/src/stm32f4xx_iwdg.o
                                                  ../../../../1_Processor/STM32F4/BSPLIB/wdg_wkup.o
M_time                                            ../../../../1_Processor/STM32F4/BSPLIB/delay.o
MemManage_Handler                                 ../../../../1_Processor/STM32F4/STM32F4-Discovery_FW_V1.1.0/Libraries/CMSIS/ST/STM32F4xx/Source/Templates/gcc_ride7/startup_stm32f4xx.o
NMI_Handler                                       ../../../../1_Processor/STM32F4/STM32F4-Discovery_FW_V1.1.0/Libraries/CMSIS/ST/STM32F4xx/Source/Templates/gcc_ride7/startup_stm32f4xx.o
NVIC_Init                                         ../../../../1_Processor/STM32F4/STM32F4-Discovery_FW_V1.1.0/Libraries/STM32F4xx_StdPeriph_Driver/src/misc.o
                                                  ../../../../1_Processor/STM32F4/BSPLIB/wdg_wkup.o
                                                  ../../../../1_Processor/STM32F4/BSPLIB/rtc.o
                                                  ../../../../1_Processor/STM32F4/BSPLIB/nvic.o
                                                  ../../../../1_Processor/STM32F4/BSPLIB/delay.o
NVIC_PriorityGroupConfig                          ../../../../1_Processor/STM32F4/STM32F4-Discovery_FW_V1.1.0/Libraries/STM32F4xx_StdPeriph_Driver/src/misc.o
                                                  ../../../../1_Processor/STM32F4/BSPLIB/nvic.o
                                                  ../../../../1_Processor/STM32F4/BSPLIB/delay.o
NVIC_SetVectorTable                               ../../../../1_Processor/STM32F4/STM32F4-Discovery_FW_V1.1.0/Libraries/STM32F4xx_StdPeriph_Driver/src/misc.o
NVIC_SystemLPConfig                               ../../../../1_Processor/STM32F4/STM32F4-Discovery_FW_V1.1.0/Libraries/STM32F4xx_StdPeriph_Driver/src/misc.o
OTG_FS_IRQHandler                                 ../../../../1_Processor/STM32F4/STM32F4-Discovery_FW_V1.1.0/Libraries/CMSIS/ST/STM32F4xx/Source/Templates/gcc_ride7/startup_stm32f4xx.o
OTG_FS_WKUP_IRQHandler                            ../../../../1_Processor/STM32F4/STM32F4-Discovery_FW_V1.1.0/Libraries/CMSIS/ST/STM32F4xx/Source/Templates/gcc_ride7/startup_stm32f4xx.o
OTG_HS_EP1_IN_IRQHandler                          ../../../../1_Processor/STM32F4/STM32F4-Discovery_FW_V1.1.0/Libraries/CMSIS/ST/STM32F4xx/Source/Templates/gcc_ride7/startup_stm32f4xx.o
OTG_HS_EP1_OUT_IRQHandler                         ../../../../1_Processor/STM32F4/STM32F4-Discovery_FW_V1.1.0/Libraries/CMSIS/ST/STM32F4xx/Source/Templates/gcc_ride7/startup_stm32f4xx.o
OTG_HS_IRQHandler                                 ../../../../1_Processor/STM32F4/STM32F4-Discovery_FW_V1.1.0/Libraries/CMSIS/ST/STM32F4xx/Source/Templates/gcc_ride7/startup_stm32f4xx.o
OTG_HS_WKUP_IRQHandler                            ../../../../1_Processor/STM32F4/STM32F4-Discovery_FW_V1.1.0/Libraries/CMSIS/ST/STM32F4xx/Source/Templates/gcc_ride7/startup_stm32f4xx.o
PVD_IRQHandler                                    ../../../../1_Processor/STM32F4/STM32F4-Discovery_FW_V1.1.0/Libraries/CMSIS/ST/STM32F4xx/Source/Templates/gcc_ride7/startup_stm32f4xx.o
PWM_Input_CH                                      ../../../../1_Processor/STM32F4/BSPLIB/pwm_in.o
PWR_BackupAccessCmd                               ../../../../1_Processor/STM32F4/STM32F4-Discovery_FW_V1.1.0/Libraries/STM32F4xx_StdPeriph_Driver/src/stm32f4xx_pwr.o
                                                  ../../../../1_Processor/STM32F4/BSPLIB/wdg_wkup.o
                                                  ../../../../1_Processor/STM32F4/BSPLIB/rtc.o
PWR_BackupRegulatorCmd                            ../../../../1_Processor/STM32F4/STM32F4-Discovery_FW_V1.1.0/Libraries/STM32F4xx_StdPeriph_Driver/src/stm32f4xx_pwr.o
PWR_ClearFlag                                     ../../../../1_Processor/STM32F4/STM32F4-Discovery_FW_V1.1.0/Libraries/STM32F4xx_StdPeriph_Driver/src/stm32f4xx_pwr.o
                                                  ../../../../1_Processor/STM32F4/BSPLIB/wdg_wkup.o
PWR_DeInit                                        ../../../../1_Processor/STM32F4/STM32F4-Discovery_FW_V1.1.0/Libraries/STM32F4xx_StdPeriph_Driver/src/stm32f4xx_pwr.o
PWR_EnterSTANDBYMode                              ../../../../1_Processor/STM32F4/STM32F4-Discovery_FW_V1.1.0/Libraries/STM32F4xx_StdPeriph_Driver/src/stm32f4xx_pwr.o
                                                  ../../../../1_Processor/STM32F4/BSPLIB/wdg_wkup.o
PWR_EnterSTOPMode                                 ../../../../1_Processor/STM32F4/STM32F4-Discovery_FW_V1.1.0/Libraries/STM32F4xx_StdPeriph_Driver/src/stm32f4xx_pwr.o
PWR_FlashPowerDownCmd                             ../../../../1_Processor/STM32F4/STM32F4-Discovery_FW_V1.1.0/Libraries/STM32F4xx_StdPeriph_Driver/src/stm32f4xx_pwr.o
PWR_GetFlagStatus                                 ../../../../1_Processor/STM32F4/STM32F4-Discovery_FW_V1.1.0/Libraries/STM32F4xx_StdPeriph_Driver/src/stm32f4xx_pwr.o
PWR_MainRegulatorModeConfig                       ../../../../1_Processor/STM32F4/STM32F4-Discovery_FW_V1.1.0/Libraries/STM32F4xx_StdPeriph_Driver/src/stm32f4xx_pwr.o
PWR_PVDCmd                                        ../../../../1_Processor/STM32F4/STM32F4-Discovery_FW_V1.1.0/Libraries/STM32F4xx_StdPeriph_Driver/src/stm32f4xx_pwr.o
PWR_PVDLevelConfig                                ../../../../1_Processor/STM32F4/STM32F4-Discovery_FW_V1.1.0/Libraries/STM32F4xx_StdPeriph_Driver/src/stm32f4xx_pwr.o
PWR_WakeUpPinCmd                                  ../../../../1_Processor/STM32F4/STM32F4-Discovery_FW_V1.1.0/Libraries/STM32F4xx_StdPeriph_Driver/src/stm32f4xx_pwr.o
                                                  ../../../../1_Processor/STM32F4/BSPLIB/wdg_wkup.o
PendSV_Handler                                    ../../../../1_Processor/STM32F4/STM32F4-Discovery_FW_V1.1.0/Libraries/CMSIS/ST/STM32F4xx/Source/Templates/gcc_ride7/startup_stm32f4xx.o
RCC_AHB1PeriphClockCmd                            ../../../../1_Processor/STM32F4/STM32F4-Discovery_FW_V1.1.0/Libraries/STM32F4xx_StdPeriph_Driver/src/stm32f4xx_rcc.o
                                                  ../../../../1_Processor/BoardAbstract/control_unit_v1.o
                                                  ../../../../1_Processor/STM32F4/BSPLIB/wdg_wkup.o
                                                  ../../../../1_Processor/STM32F4/BSPLIB/usart.o
                                                  ../../../../1_Processor/STM32F4/BSPLIB/spi.o
                                                  ../../../../1_Processor/STM32F4/BSPLIB/pwm_out.o
                                                  ../../../../1_Processor/STM32F4/BSPLIB/i2c.o
                                                  ../../../../1_Processor/STM32F4/BSPLIB/encoder.o
                                                  ../../../../1_Processor/STM32F4/BSPLIB/can.o
                                                  ../../../../1_Processor/STM32F4/BSPLIB/adc_dac.o
RCC_AHB1PeriphClockLPModeCmd                      ../../../../1_Processor/STM32F4/STM32F4-Discovery_FW_V1.1.0/Libraries/STM32F4xx_StdPeriph_Driver/src/stm32f4xx_rcc.o
RCC_AHB1PeriphResetCmd                            ../../../../1_Processor/STM32F4/STM32F4-Discovery_FW_V1.1.0/Libraries/STM32F4xx_StdPeriph_Driver/src/stm32f4xx_rcc.o
                                                  ../../../../1_Processor/STM32F4/BSPLIB/wdg_wkup.o
                                                  ../../../../1_Processor/STM32F4/STM32F4-Discovery_FW_V1.1.0/Libraries/STM32F4xx_StdPeriph_Driver/src/stm32f4xx_gpio.o
RCC_AHB2PeriphClockCmd                            ../../../../1_Processor/STM32F4/STM32F4-Discovery_FW_V1.1.0/Libraries/STM32F4xx_StdPeriph_Driver/src/stm32f4xx_rcc.o
RCC_AHB2PeriphClockLPModeCmd                      ../../../../1_Processor/STM32F4/STM32F4-Discovery_FW_V1.1.0/Libraries/STM32F4xx_StdPeriph_Driver/src/stm32f4xx_rcc.o
RCC_AHB2PeriphResetCmd                            ../../../../1_Processor/STM32F4/STM32F4-Discovery_FW_V1.1.0/Libraries/STM32F4xx_StdPeriph_Driver/src/stm32f4xx_rcc.o
                                                  ../../../../1_Processor/STM32F4/STM32F4-Discovery_FW_V1.1.0/Libraries/STM32F4xx_StdPeriph_Driver/src/stm32f4xx_rng.o
                                                  ../../../../1_Processor/STM32F4/STM32F4-Discovery_FW_V1.1.0/Libraries/STM32F4xx_StdPeriph_Driver/src/stm32f4xx_hash.o
                                                  ../../../../1_Processor/STM32F4/STM32F4-Discovery_FW_V1.1.0/Libraries/STM32F4xx_StdPeriph_Driver/src/stm32f4xx_cryp.o
RCC_AHB3PeriphClockCmd                            ../../../../1_Processor/STM32F4/STM32F4-Discovery_FW_V1.1.0/Libraries/STM32F4xx_StdPeriph_Driver/src/stm32f4xx_rcc.o
RCC_AHB3PeriphClockLPModeCmd                      ../../../../1_Processor/STM32F4/STM32F4-Discovery_FW_V1.1.0/Libraries/STM32F4xx_StdPeriph_Driver/src/stm32f4xx_rcc.o
RCC_AHB3PeriphResetCmd                            ../../../../1_Processor/STM32F4/STM32F4-Discovery_FW_V1.1.0/Libraries/STM32F4xx_StdPeriph_Driver/src/stm32f4xx_rcc.o
RCC_APB1PeriphClockCmd                            ../../../../1_Processor/STM32F4/STM32F4-Discovery_FW_V1.1.0/Libraries/STM32F4xx_StdPeriph_Driver/src/stm32f4xx_rcc.o
                                                  ../../../../1_Processor/STM32F4/BSPLIB/wdg_wkup.o
                                                  ../../../../1_Processor/STM32F4/BSPLIB/usart.o
                                                  ../../../../1_Processor/STM32F4/BSPLIB/timer.o
                                                  ../../../../1_Processor/STM32F4/BSPLIB/spi.o
                                                  ../../../../1_Processor/STM32F4/BSPLIB/rtc.o
                                                  ../../../../1_Processor/STM32F4/BSPLIB/pwm_out.o
                                                  ../../../../1_Processor/STM32F4/BSPLIB/encoder.o
                                                  ../../../../1_Processor/STM32F4/BSPLIB/delay.o
                                                  ../../../../1_Processor/STM32F4/BSPLIB/can.o
                                                  ../../../../1_Processor/STM32F4/BSPLIB/adc_dac.o
RCC_APB1PeriphClockLPModeCmd                      ../../../../1_Processor/STM32F4/STM32F4-Discovery_FW_V1.1.0/Libraries/STM32F4xx_StdPeriph_Driver/src/stm32f4xx_rcc.o
RCC_APB1PeriphResetCmd                            ../../../../1_Processor/STM32F4/STM32F4-Discovery_FW_V1.1.0/Libraries/STM32F4xx_StdPeriph_Driver/src/stm32f4xx_rcc.o
                                                  ../../../../1_Processor/STM32F4/STM32F4-Discovery_FW_V1.1.0/Libraries/STM32F4xx_StdPeriph_Driver/src/stm32f4xx_wwdg.o
                                                  ../../../../1_Processor/STM32F4/STM32F4-Discovery_FW_V1.1.0/Libraries/STM32F4xx_StdPeriph_Driver/src/stm32f4xx_usart.o
                                                  ../../../../1_Processor/STM32F4/STM32F4-Discovery_FW_V1.1.0/Libraries/STM32F4xx_StdPeriph_Driver/src/stm32f4xx_tim.o
                                                  ../../../../1_Processor/STM32F4/STM32F4-Discovery_FW_V1.1.0/Libraries/STM32F4xx_StdPeriph_Driver/src/stm32f4xx_spi.o
                                                  ../../../../1_Processor/STM32F4/STM32F4-Discovery_FW_V1.1.0/Libraries/STM32F4xx_StdPeriph_Driver/src/stm32f4xx_pwr.o
                                                  ../../../../1_Processor/STM32F4/STM32F4-Discovery_FW_V1.1.0/Libraries/STM32F4xx_StdPeriph_Driver/src/stm32f4xx_i2c.o
                                                  ../../../../1_Processor/STM32F4/STM32F4-Discovery_FW_V1.1.0/Libraries/STM32F4xx_StdPeriph_Driver/src/stm32f4xx_dac.o
                                                  ../../../../1_Processor/STM32F4/STM32F4-Discovery_FW_V1.1.0/Libraries/STM32F4xx_StdPeriph_Driver/src/stm32f4xx_can.o
RCC_APB2PeriphClockCmd                            ../../../../1_Processor/STM32F4/STM32F4-Discovery_FW_V1.1.0/Libraries/STM32F4xx_StdPeriph_Driver/src/stm32f4xx_rcc.o
                                                  ../../../../1_Processor/STM32F4/BSPLIB/wdg_wkup.o
                                                  ../../../../1_Processor/STM32F4/BSPLIB/usart.o
                                                  ../../../../1_Processor/STM32F4/BSPLIB/timer.o
                                                  ../../../../1_Processor/STM32F4/BSPLIB/spi.o
                                                  ../../../../1_Processor/STM32F4/BSPLIB/pwm_out.o
                                                  ../../../../1_Processor/STM32F4/BSPLIB/pwm_in.o
                                                  ../../../../1_Processor/STM32F4/BSPLIB/adc_dac.o
RCC_APB2PeriphClockLPModeCmd                      ../../../../1_Processor/STM32F4/STM32F4-Discovery_FW_V1.1.0/Libraries/STM32F4xx_StdPeriph_Driver/src/stm32f4xx_rcc.o
RCC_APB2PeriphResetCmd                            ../../../../1_Processor/STM32F4/STM32F4-Discovery_FW_V1.1.0/Libraries/STM32F4xx_StdPeriph_Driver/src/stm32f4xx_rcc.o
                                                  ../../../../1_Processor/STM32F4/BSPLIB/adc_dac.o
                                                  ../../../../1_Processor/STM32F4/STM32F4-Discovery_FW_V1.1.0/Libraries/STM32F4xx_StdPeriph_Driver/src/stm32f4xx_usart.o
                                                  ../../../../1_Processor/STM32F4/STM32F4-Discovery_FW_V1.1.0/Libraries/STM32F4xx_StdPeriph_Driver/src/stm32f4xx_tim.o
                                                  ../../../../1_Processor/STM32F4/STM32F4-Discovery_FW_V1.1.0/Libraries/STM32F4xx_StdPeriph_Driver/src/stm32f4xx_syscfg.o
                                                  ../../../../1_Processor/STM32F4/STM32F4-Discovery_FW_V1.1.0/Libraries/STM32F4xx_StdPeriph_Driver/src/stm32f4xx_spi.o
                                                  ../../../../1_Processor/STM32F4/STM32F4-Discovery_FW_V1.1.0/Libraries/STM32F4xx_StdPeriph_Driver/src/stm32f4xx_sdio.o
                                                  ../../../../1_Processor/STM32F4/STM32F4-Discovery_FW_V1.1.0/Libraries/STM32F4xx_StdPeriph_Driver/src/stm32f4xx_adc.o
RCC_AdjustHSICalibrationValue                     ../../../../1_Processor/STM32F4/STM32F4-Discovery_FW_V1.1.0/Libraries/STM32F4xx_StdPeriph_Driver/src/stm32f4xx_rcc.o
RCC_BackupResetCmd                                ../../../../1_Processor/STM32F4/STM32F4-Discovery_FW_V1.1.0/Libraries/STM32F4xx_StdPeriph_Driver/src/stm32f4xx_rcc.o
RCC_ClearFlag                                     ../../../../1_Processor/STM32F4/STM32F4-Discovery_FW_V1.1.0/Libraries/STM32F4xx_StdPeriph_Driver/src/stm32f4xx_rcc.o
RCC_ClearITPendingBit                             ../../../../1_Processor/STM32F4/STM32F4-Discovery_FW_V1.1.0/Libraries/STM32F4xx_StdPeriph_Driver/src/stm32f4xx_rcc.o
RCC_ClockSecuritySystemCmd                        ../../../../1_Processor/STM32F4/STM32F4-Discovery_FW_V1.1.0/Libraries/STM32F4xx_StdPeriph_Driver/src/stm32f4xx_rcc.o
RCC_DeInit                                        ../../../../1_Processor/STM32F4/STM32F4-Discovery_FW_V1.1.0/Libraries/STM32F4xx_StdPeriph_Driver/src/stm32f4xx_rcc.o
RCC_GetClocksFreq                                 ../../../../1_Processor/STM32F4/STM32F4-Discovery_FW_V1.1.0/Libraries/STM32F4xx_StdPeriph_Driver/src/stm32f4xx_rcc.o
                                                  ../../../../1_Processor/STM32F4/STM32F4-Discovery_FW_V1.1.0/Libraries/STM32F4xx_StdPeriph_Driver/src/stm32f4xx_usart.o
                                                  ../../../../1_Processor/STM32F4/STM32F4-Discovery_FW_V1.1.0/Libraries/STM32F4xx_StdPeriph_Driver/src/stm32f4xx_i2c.o
RCC_GetFlagStatus                                 ../../../../1_Processor/STM32F4/STM32F4-Discovery_FW_V1.1.0/Libraries/STM32F4xx_StdPeriph_Driver/src/stm32f4xx_rcc.o
                                                  ../../../../1_Processor/STM32F4/BSPLIB/rtc.o
RCC_GetITStatus                                   ../../../../1_Processor/STM32F4/STM32F4-Discovery_FW_V1.1.0/Libraries/STM32F4xx_StdPeriph_Driver/src/stm32f4xx_rcc.o
RCC_GetSYSCLKSource                               ../../../../1_Processor/STM32F4/STM32F4-Discovery_FW_V1.1.0/Libraries/STM32F4xx_StdPeriph_Driver/src/stm32f4xx_rcc.o
RCC_HCLKConfig                                    ../../../../1_Processor/STM32F4/STM32F4-Discovery_FW_V1.1.0/Libraries/STM32F4xx_StdPeriph_Driver/src/stm32f4xx_rcc.o
RCC_HSEConfig                                     ../../../../1_Processor/STM32F4/STM32F4-Discovery_FW_V1.1.0/Libraries/STM32F4xx_StdPeriph_Driver/src/stm32f4xx_rcc.o
RCC_HSICmd                                        ../../../../1_Processor/STM32F4/STM32F4-Discovery_FW_V1.1.0/Libraries/STM32F4xx_StdPeriph_Driver/src/stm32f4xx_rcc.o
RCC_I2SCLKConfig                                  ../../../../1_Processor/STM32F4/STM32F4-Discovery_FW_V1.1.0/Libraries/STM32F4xx_StdPeriph_Driver/src/stm32f4xx_rcc.o
RCC_IRQHandler                                    ../../../../1_Processor/STM32F4/STM32F4-Discovery_FW_V1.1.0/Libraries/CMSIS/ST/STM32F4xx/Source/Templates/gcc_ride7/startup_stm32f4xx.o
RCC_ITConfig                                      ../../../../1_Processor/STM32F4/STM32F4-Discovery_FW_V1.1.0/Libraries/STM32F4xx_StdPeriph_Driver/src/stm32f4xx_rcc.o
RCC_LSEConfig                                     ../../../../1_Processor/STM32F4/STM32F4-Discovery_FW_V1.1.0/Libraries/STM32F4xx_StdPeriph_Driver/src/stm32f4xx_rcc.o
                                                  ../../../../1_Processor/STM32F4/BSPLIB/rtc.o
RCC_LSICmd                                        ../../../../1_Processor/STM32F4/STM32F4-Discovery_FW_V1.1.0/Libraries/STM32F4xx_StdPeriph_Driver/src/stm32f4xx_rcc.o
RCC_MCO1Config                                    ../../../../1_Processor/STM32F4/STM32F4-Discovery_FW_V1.1.0/Libraries/STM32F4xx_StdPeriph_Driver/src/stm32f4xx_rcc.o
RCC_MCO2Config                                    ../../../../1_Processor/STM32F4/STM32F4-Discovery_FW_V1.1.0/Libraries/STM32F4xx_StdPeriph_Driver/src/stm32f4xx_rcc.o
RCC_PCLK1Config                                   ../../../../1_Processor/STM32F4/STM32F4-Discovery_FW_V1.1.0/Libraries/STM32F4xx_StdPeriph_Driver/src/stm32f4xx_rcc.o
RCC_PCLK2Config                                   ../../../../1_Processor/STM32F4/STM32F4-Discovery_FW_V1.1.0/Libraries/STM32F4xx_StdPeriph_Driver/src/stm32f4xx_rcc.o
RCC_PLLCmd                                        ../../../../1_Processor/STM32F4/STM32F4-Discovery_FW_V1.1.0/Libraries/STM32F4xx_StdPeriph_Driver/src/stm32f4xx_rcc.o
RCC_PLLConfig                                     ../../../../1_Processor/STM32F4/STM32F4-Discovery_FW_V1.1.0/Libraries/STM32F4xx_StdPeriph_Driver/src/stm32f4xx_rcc.o
RCC_PLLI2SCmd                                     ../../../../1_Processor/STM32F4/STM32F4-Discovery_FW_V1.1.0/Libraries/STM32F4xx_StdPeriph_Driver/src/stm32f4xx_rcc.o
RCC_PLLI2SConfig                                  ../../../../1_Processor/STM32F4/STM32F4-Discovery_FW_V1.1.0/Libraries/STM32F4xx_StdPeriph_Driver/src/stm32f4xx_rcc.o
RCC_RTCCLKCmd                                     ../../../../1_Processor/STM32F4/STM32F4-Discovery_FW_V1.1.0/Libraries/STM32F4xx_StdPeriph_Driver/src/stm32f4xx_rcc.o
                                                  ../../../../1_Processor/STM32F4/BSPLIB/rtc.o
RCC_RTCCLKConfig                                  ../../../../1_Processor/STM32F4/STM32F4-Discovery_FW_V1.1.0/Libraries/STM32F4xx_StdPeriph_Driver/src/stm32f4xx_rcc.o
                                                  ../../../../1_Processor/STM32F4/BSPLIB/rtc.o
RCC_SYSCLKConfig                                  ../../../../1_Processor/STM32F4/STM32F4-Discovery_FW_V1.1.0/Libraries/STM32F4xx_StdPeriph_Driver/src/stm32f4xx_rcc.o
RCC_WaitForHSEStartUp                             ../../../../1_Processor/STM32F4/STM32F4-Discovery_FW_V1.1.0/Libraries/STM32F4xx_StdPeriph_Driver/src/stm32f4xx_rcc.o
RNG_ClearFlag                                     ../../../../1_Processor/STM32F4/STM32F4-Discovery_FW_V1.1.0/Libraries/STM32F4xx_StdPeriph_Driver/src/stm32f4xx_rng.o
RNG_ClearITPendingBit                             ../../../../1_Processor/STM32F4/STM32F4-Discovery_FW_V1.1.0/Libraries/STM32F4xx_StdPeriph_Driver/src/stm32f4xx_rng.o
RNG_Cmd                                           ../../../../1_Processor/STM32F4/STM32F4-Discovery_FW_V1.1.0/Libraries/STM32F4xx_StdPeriph_Driver/src/stm32f4xx_rng.o
RNG_DeInit                                        ../../../../1_Processor/STM32F4/STM32F4-Discovery_FW_V1.1.0/Libraries/STM32F4xx_StdPeriph_Driver/src/stm32f4xx_rng.o
RNG_GetFlagStatus                                 ../../../../1_Processor/STM32F4/STM32F4-Discovery_FW_V1.1.0/Libraries/STM32F4xx_StdPeriph_Driver/src/stm32f4xx_rng.o
RNG_GetITStatus                                   ../../../../1_Processor/STM32F4/STM32F4-Discovery_FW_V1.1.0/Libraries/STM32F4xx_StdPeriph_Driver/src/stm32f4xx_rng.o
RNG_GetRandomNumber                               ../../../../1_Processor/STM32F4/STM32F4-Discovery_FW_V1.1.0/Libraries/STM32F4xx_StdPeriph_Driver/src/stm32f4xx_rng.o
RNG_ITConfig                                      ../../../../1_Processor/STM32F4/STM32F4-Discovery_FW_V1.1.0/Libraries/STM32F4xx_StdPeriph_Driver/src/stm32f4xx_rng.o
RTC_AlarmCmd                                      ../../../../1_Processor/STM32F4/STM32F4-Discovery_FW_V1.1.0/Libraries/STM32F4xx_StdPeriph_Driver/src/stm32f4xx_rtc.o
                                                  ../../../../1_Processor/STM32F4/BSPLIB/rtc.o
RTC_AlarmStructInit                               ../../../../1_Processor/STM32F4/STM32F4-Discovery_FW_V1.1.0/Libraries/STM32F4xx_StdPeriph_Driver/src/stm32f4xx_rtc.o
RTC_AlarmSubSecondConfig                          ../../../../1_Processor/STM32F4/STM32F4-Discovery_FW_V1.1.0/Libraries/STM32F4xx_StdPeriph_Driver/src/stm32f4xx_rtc.o
RTC_Alarm_IRQHandler                              ../../../../1_Processor/STM32F4/BSPLIB/rtc.o
                                                  ../../../../1_Processor/STM32F4/STM32F4-Discovery_FW_V1.1.0/Libraries/CMSIS/ST/STM32F4xx/Source/Templates/gcc_ride7/startup_stm32f4xx.o
RTC_BypassShadowCmd                               ../../../../1_Processor/STM32F4/STM32F4-Discovery_FW_V1.1.0/Libraries/STM32F4xx_StdPeriph_Driver/src/stm32f4xx_rtc.o
RTC_CalibOutputCmd                                ../../../../1_Processor/STM32F4/STM32F4-Discovery_FW_V1.1.0/Libraries/STM32F4xx_StdPeriph_Driver/src/stm32f4xx_rtc.o
RTC_CalibOutputConfig                             ../../../../1_Processor/STM32F4/STM32F4-Discovery_FW_V1.1.0/Libraries/STM32F4xx_StdPeriph_Driver/src/stm32f4xx_rtc.o
RTC_ClearFlag                                     ../../../../1_Processor/STM32F4/STM32F4-Discovery_FW_V1.1.0/Libraries/STM32F4xx_StdPeriph_Driver/src/stm32f4xx_rtc.o
                                                  ../../../../1_Processor/STM32F4/BSPLIB/rtc.o
RTC_ClearITPendingBit                             ../../../../1_Processor/STM32F4/STM32F4-Discovery_FW_V1.1.0/Libraries/STM32F4xx_StdPeriph_Driver/src/stm32f4xx_rtc.o
                                                  ../../../../1_Processor/STM32F4/BSPLIB/wdg_wkup.o
                                                  ../../../../1_Processor/STM32F4/BSPLIB/rtc.o
RTC_CoarseCalibCmd                                ../../../../1_Processor/STM32F4/STM32F4-Discovery_FW_V1.1.0/Libraries/STM32F4xx_StdPeriph_Driver/src/stm32f4xx_rtc.o
RTC_CoarseCalibConfig                             ../../../../1_Processor/STM32F4/STM32F4-Discovery_FW_V1.1.0/Libraries/STM32F4xx_StdPeriph_Driver/src/stm32f4xx_rtc.o
RTC_DateStructInit                                ../../../../1_Processor/STM32F4/STM32F4-Discovery_FW_V1.1.0/Libraries/STM32F4xx_StdPeriph_Driver/src/stm32f4xx_rtc.o
RTC_DayLightSavingConfig                          ../../../../1_Processor/STM32F4/STM32F4-Discovery_FW_V1.1.0/Libraries/STM32F4xx_StdPeriph_Driver/src/stm32f4xx_rtc.o
RTC_DeInit                                        ../../../../1_Processor/STM32F4/STM32F4-Discovery_FW_V1.1.0/Libraries/STM32F4xx_StdPeriph_Driver/src/stm32f4xx_rtc.o
RTC_EnterInitMode                                 ../../../../1_Processor/STM32F4/STM32F4-Discovery_FW_V1.1.0/Libraries/STM32F4xx_StdPeriph_Driver/src/stm32f4xx_rtc.o
RTC_ExitInitMode                                  ../../../../1_Processor/STM32F4/STM32F4-Discovery_FW_V1.1.0/Libraries/STM32F4xx_StdPeriph_Driver/src/stm32f4xx_rtc.o
RTC_GetAlarm                                      ../../../../1_Processor/STM32F4/STM32F4-Discovery_FW_V1.1.0/Libraries/STM32F4xx_StdPeriph_Driver/src/stm32f4xx_rtc.o
RTC_GetAlarmSubSecond                             ../../../../1_Processor/STM32F4/STM32F4-Discovery_FW_V1.1.0/Libraries/STM32F4xx_StdPeriph_Driver/src/stm32f4xx_rtc.o
RTC_GetDate                                       ../../../../1_Processor/STM32F4/STM32F4-Discovery_FW_V1.1.0/Libraries/STM32F4xx_StdPeriph_Driver/src/stm32f4xx_rtc.o
                                                  ../../../../1_Processor/STM32F4/BSPLIB/rtc.o
RTC_GetFlagStatus                                 ../../../../1_Processor/STM32F4/STM32F4-Discovery_FW_V1.1.0/Libraries/STM32F4xx_StdPeriph_Driver/src/stm32f4xx_rtc.o
                                                  ../../../../1_Processor/STM32F4/BSPLIB/rtc.o
RTC_GetITStatus                                   ../../../../1_Processor/STM32F4/STM32F4-Discovery_FW_V1.1.0/Libraries/STM32F4xx_StdPeriph_Driver/src/stm32f4xx_rtc.o
RTC_GetStoreOperation                             ../../../../1_Processor/STM32F4/STM32F4-Discovery_FW_V1.1.0/Libraries/STM32F4xx_StdPeriph_Driver/src/stm32f4xx_rtc.o
RTC_GetSubSecond                                  ../../../../1_Processor/STM32F4/STM32F4-Discovery_FW_V1.1.0/Libraries/STM32F4xx_StdPeriph_Driver/src/stm32f4xx_rtc.o
RTC_GetTime                                       ../../../../1_Processor/STM32F4/STM32F4-Discovery_FW_V1.1.0/Libraries/STM32F4xx_StdPeriph_Driver/src/stm32f4xx_rtc.o
                                                  ../../../../1_Processor/STM32F4/BSPLIB/rtc.o
RTC_GetTimeStamp                                  ../../../../1_Processor/STM32F4/STM32F4-Discovery_FW_V1.1.0/Libraries/STM32F4xx_StdPeriph_Driver/src/stm32f4xx_rtc.o
RTC_GetTimeStampSubSecond                         ../../../../1_Processor/STM32F4/STM32F4-Discovery_FW_V1.1.0/Libraries/STM32F4xx_StdPeriph_Driver/src/stm32f4xx_rtc.o
RTC_GetWakeUpCounter                              ../../../../1_Processor/STM32F4/STM32F4-Discovery_FW_V1.1.0/Libraries/STM32F4xx_StdPeriph_Driver/src/stm32f4xx_rtc.o
RTC_Get_Date                                      ../../../../1_Processor/STM32F4/BSPLIB/rtc.o
RTC_Get_Time                                      ../../../../1_Processor/STM32F4/BSPLIB/rtc.o
RTC_Get_Week                                      ../../../../1_Processor/STM32F4/BSPLIB/rtc.o
RTC_ITConfig                                      ../../../../1_Processor/STM32F4/STM32F4-Discovery_FW_V1.1.0/Libraries/STM32F4xx_StdPeriph_Driver/src/stm32f4xx_rtc.o
                                                  ../../../../1_Processor/STM32F4/BSPLIB/wdg_wkup.o
                                                  ../../../../1_Processor/STM32F4/BSPLIB/rtc.o
RTC_Init                                          ../../../../1_Processor/STM32F4/STM32F4-Discovery_FW_V1.1.0/Libraries/STM32F4xx_StdPeriph_Driver/src/stm32f4xx_rtc.o
                                                  ../../../../1_Processor/STM32F4/BSPLIB/rtc.o
RTC_OutputConfig                                  ../../../../1_Processor/STM32F4/STM32F4-Discovery_FW_V1.1.0/Libraries/STM32F4xx_StdPeriph_Driver/src/stm32f4xx_rtc.o
RTC_OutputTypeConfig                              ../../../../1_Processor/STM32F4/STM32F4-Discovery_FW_V1.1.0/Libraries/STM32F4xx_StdPeriph_Driver/src/stm32f4xx_rtc.o
RTC_ReadBackupRegister                            ../../../../1_Processor/STM32F4/STM32F4-Discovery_FW_V1.1.0/Libraries/STM32F4xx_StdPeriph_Driver/src/stm32f4xx_rtc.o
                                                  ../../../../1_Processor/STM32F4/BSPLIB/rtc.o
RTC_RefClockCmd                                   ../../../../1_Processor/STM32F4/STM32F4-Discovery_FW_V1.1.0/Libraries/STM32F4xx_StdPeriph_Driver/src/stm32f4xx_rtc.o
RTC_SetAlarm                                      ../../../../1_Processor/STM32F4/STM32F4-Discovery_FW_V1.1.0/Libraries/STM32F4xx_StdPeriph_Driver/src/stm32f4xx_rtc.o
                                                  ../../../../1_Processor/STM32F4/BSPLIB/rtc.o
RTC_SetDate                                       ../../../../1_Processor/STM32F4/STM32F4-Discovery_FW_V1.1.0/Libraries/STM32F4xx_StdPeriph_Driver/src/stm32f4xx_rtc.o
                                                  ../../../../1_Processor/STM32F4/BSPLIB/rtc.o
RTC_SetTime                                       ../../../../1_Processor/STM32F4/STM32F4-Discovery_FW_V1.1.0/Libraries/STM32F4xx_StdPeriph_Driver/src/stm32f4xx_rtc.o
                                                  ../../../../1_Processor/STM32F4/BSPLIB/rtc.o
RTC_SetWakeUpCounter                              ../../../../1_Processor/STM32F4/STM32F4-Discovery_FW_V1.1.0/Libraries/STM32F4xx_StdPeriph_Driver/src/stm32f4xx_rtc.o
                                                  ../../../../1_Processor/STM32F4/BSPLIB/rtc.o
RTC_Set_AlarmA                                    ../../../../1_Processor/STM32F4/BSPLIB/rtc.o
RTC_Set_Date                                      ../../../../1_Processor/STM32F4/BSPLIB/rtc.o
RTC_Set_Time                                      ../../../../1_Processor/STM32F4/BSPLIB/rtc.o
RTC_Set_WakeUp                                    ../../../../1_Processor/STM32F4/BSPLIB/rtc.o
RTC_SmoothCalibConfig                             ../../../../1_Processor/STM32F4/STM32F4-Discovery_FW_V1.1.0/Libraries/STM32F4xx_StdPeriph_Driver/src/stm32f4xx_rtc.o
RTC_StructInit                                    ../../../../1_Processor/STM32F4/STM32F4-Discovery_FW_V1.1.0/Libraries/STM32F4xx_StdPeriph_Driver/src/stm32f4xx_rtc.o
RTC_SynchroShiftConfig                            ../../../../1_Processor/STM32F4/STM32F4-Discovery_FW_V1.1.0/Libraries/STM32F4xx_StdPeriph_Driver/src/stm32f4xx_rtc.o
RTC_TamperCmd                                     ../../../../1_Processor/STM32F4/STM32F4-Discovery_FW_V1.1.0/Libraries/STM32F4xx_StdPeriph_Driver/src/stm32f4xx_rtc.o
RTC_TamperFilterConfig                            ../../../../1_Processor/STM32F4/STM32F4-Discovery_FW_V1.1.0/Libraries/STM32F4xx_StdPeriph_Driver/src/stm32f4xx_rtc.o
RTC_TamperPinSelection                            ../../../../1_Processor/STM32F4/STM32F4-Discovery_FW_V1.1.0/Libraries/STM32F4xx_StdPeriph_Driver/src/stm32f4xx_rtc.o
RTC_TamperPinsPrechargeDuration                   ../../../../1_Processor/STM32F4/STM32F4-Discovery_FW_V1.1.0/Libraries/STM32F4xx_StdPeriph_Driver/src/stm32f4xx_rtc.o
RTC_TamperPullUpCmd                               ../../../../1_Processor/STM32F4/STM32F4-Discovery_FW_V1.1.0/Libraries/STM32F4xx_StdPeriph_Driver/src/stm32f4xx_rtc.o
RTC_TamperSamplingFreqConfig                      ../../../../1_Processor/STM32F4/STM32F4-Discovery_FW_V1.1.0/Libraries/STM32F4xx_StdPeriph_Driver/src/stm32f4xx_rtc.o
RTC_TamperTriggerConfig                           ../../../../1_Processor/STM32F4/STM32F4-Discovery_FW_V1.1.0/Libraries/STM32F4xx_StdPeriph_Driver/src/stm32f4xx_rtc.o
RTC_TimeStampCmd                                  ../../../../1_Processor/STM32F4/STM32F4-Discovery_FW_V1.1.0/Libraries/STM32F4xx_StdPeriph_Driver/src/stm32f4xx_rtc.o
RTC_TimeStampOnTamperDetectionCmd                 ../../../../1_Processor/STM32F4/STM32F4-Discovery_FW_V1.1.0/Libraries/STM32F4xx_StdPeriph_Driver/src/stm32f4xx_rtc.o
RTC_TimeStampPinSelection                         ../../../../1_Processor/STM32F4/STM32F4-Discovery_FW_V1.1.0/Libraries/STM32F4xx_StdPeriph_Driver/src/stm32f4xx_rtc.o
RTC_TimeStructInit                                ../../../../1_Processor/STM32F4/STM32F4-Discovery_FW_V1.1.0/Libraries/STM32F4xx_StdPeriph_Driver/src/stm32f4xx_rtc.o
RTC_WKUP_IRQHandler                               ../../../../1_Processor/STM32F4/BSPLIB/rtc.o
                                                  ../../../../1_Processor/STM32F4/STM32F4-Discovery_FW_V1.1.0/Libraries/CMSIS/ST/STM32F4xx/Source/Templates/gcc_ride7/startup_stm32f4xx.o
RTC_WaitForSynchro                                ../../../../1_Processor/STM32F4/STM32F4-Discovery_FW_V1.1.0/Libraries/STM32F4xx_StdPeriph_Driver/src/stm32f4xx_rtc.o
RTC_WakeUpClockConfig                             ../../../../1_Processor/STM32F4/STM32F4-Discovery_FW_V1.1.0/Libraries/STM32F4xx_StdPeriph_Driver/src/stm32f4xx_rtc.o
                                                  ../../../../1_Processor/STM32F4/BSPLIB/rtc.o
RTC_WakeUpCmd                                     ../../../../1_Processor/STM32F4/STM32F4-Discovery_FW_V1.1.0/Libraries/STM32F4xx_StdPeriph_Driver/src/stm32f4xx_rtc.o
                                                  ../../../../1_Processor/STM32F4/BSPLIB/rtc.o
RTC_WriteBackupRegister                           ../../../../1_Processor/STM32F4/STM32F4-Discovery_FW_V1.1.0/Libraries/STM32F4xx_StdPeriph_Driver/src/stm32f4xx_rtc.o
                                                  ../../../../1_Processor/STM32F4/BSPLIB/rtc.o
RTC_WriteProtectionCmd                            ../../../../1_Processor/STM32F4/STM32F4-Discovery_FW_V1.1.0/Libraries/STM32F4xx_StdPeriph_Driver/src/stm32f4xx_rtc.o
Reset_Handler                                     ../../../../1_Processor/STM32F4/STM32F4-Discovery_FW_V1.1.0/Libraries/CMSIS/ST/STM32F4xx/Source/Templates/gcc_ride7/startup_stm32f4xx.o
SDIO_CEATAITCmd                                   ../../../../1_Processor/STM32F4/STM32F4-Discovery_FW_V1.1.0/Libraries/STM32F4xx_StdPeriph_Driver/src/stm32f4xx_sdio.o
SDIO_ClearFlag                                    ../../../../1_Processor/STM32F4/STM32F4-Discovery_FW_V1.1.0/Libraries/STM32F4xx_StdPeriph_Driver/src/stm32f4xx_sdio.o
SDIO_ClearITPendingBit                            ../../../../1_Processor/STM32F4/STM32F4-Discovery_FW_V1.1.0/Libraries/STM32F4xx_StdPeriph_Driver/src/stm32f4xx_sdio.o
SDIO_ClockCmd                                     ../../../../1_Processor/STM32F4/STM32F4-Discovery_FW_V1.1.0/Libraries/STM32F4xx_StdPeriph_Driver/src/stm32f4xx_sdio.o
SDIO_CmdStructInit                                ../../../../1_Processor/STM32F4/STM32F4-Discovery_FW_V1.1.0/Libraries/STM32F4xx_StdPeriph_Driver/src/stm32f4xx_sdio.o
SDIO_CommandCompletionCmd                         ../../../../1_Processor/STM32F4/STM32F4-Discovery_FW_V1.1.0/Libraries/STM32F4xx_StdPeriph_Driver/src/stm32f4xx_sdio.o
SDIO_DMACmd                                       ../../../../1_Processor/STM32F4/STM32F4-Discovery_FW_V1.1.0/Libraries/STM32F4xx_StdPeriph_Driver/src/stm32f4xx_sdio.o
SDIO_DataConfig                                   ../../../../1_Processor/STM32F4/STM32F4-Discovery_FW_V1.1.0/Libraries/STM32F4xx_StdPeriph_Driver/src/stm32f4xx_sdio.o
SDIO_DataStructInit                               ../../../../1_Processor/STM32F4/STM32F4-Discovery_FW_V1.1.0/Libraries/STM32F4xx_StdPeriph_Driver/src/stm32f4xx_sdio.o
SDIO_DeInit                                       ../../../../1_Processor/STM32F4/STM32F4-Discovery_FW_V1.1.0/Libraries/STM32F4xx_StdPeriph_Driver/src/stm32f4xx_sdio.o
SDIO_GetCommandResponse                           ../../../../1_Processor/STM32F4/STM32F4-Discovery_FW_V1.1.0/Libraries/STM32F4xx_StdPeriph_Driver/src/stm32f4xx_sdio.o
SDIO_GetDataCounter                               ../../../../1_Processor/STM32F4/STM32F4-Discovery_FW_V1.1.0/Libraries/STM32F4xx_StdPeriph_Driver/src/stm32f4xx_sdio.o
SDIO_GetFIFOCount                                 ../../../../1_Processor/STM32F4/STM32F4-Discovery_FW_V1.1.0/Libraries/STM32F4xx_StdPeriph_Driver/src/stm32f4xx_sdio.o
SDIO_GetFlagStatus                                ../../../../1_Processor/STM32F4/STM32F4-Discovery_FW_V1.1.0/Libraries/STM32F4xx_StdPeriph_Driver/src/stm32f4xx_sdio.o
SDIO_GetITStatus                                  ../../../../1_Processor/STM32F4/STM32F4-Discovery_FW_V1.1.0/Libraries/STM32F4xx_StdPeriph_Driver/src/stm32f4xx_sdio.o
SDIO_GetPowerState                                ../../../../1_Processor/STM32F4/STM32F4-Discovery_FW_V1.1.0/Libraries/STM32F4xx_StdPeriph_Driver/src/stm32f4xx_sdio.o
SDIO_GetResponse                                  ../../../../1_Processor/STM32F4/STM32F4-Discovery_FW_V1.1.0/Libraries/STM32F4xx_StdPeriph_Driver/src/stm32f4xx_sdio.o
SDIO_IRQHandler                                   ../../../../1_Processor/STM32F4/STM32F4-Discovery_FW_V1.1.0/Libraries/CMSIS/ST/STM32F4xx/Source/Templates/gcc_ride7/startup_stm32f4xx.o
SDIO_ITConfig                                     ../../../../1_Processor/STM32F4/STM32F4-Discovery_FW_V1.1.0/Libraries/STM32F4xx_StdPeriph_Driver/src/stm32f4xx_sdio.o
SDIO_Init                                         ../../../../1_Processor/STM32F4/STM32F4-Discovery_FW_V1.1.0/Libraries/STM32F4xx_StdPeriph_Driver/src/stm32f4xx_sdio.o
SDIO_ReadData                                     ../../../../1_Processor/STM32F4/STM32F4-Discovery_FW_V1.1.0/Libraries/STM32F4xx_StdPeriph_Driver/src/stm32f4xx_sdio.o
SDIO_SendCEATACmd                                 ../../../../1_Processor/STM32F4/STM32F4-Discovery_FW_V1.1.0/Libraries/STM32F4xx_StdPeriph_Driver/src/stm32f4xx_sdio.o
SDIO_SendCommand                                  ../../../../1_Processor/STM32F4/STM32F4-Discovery_FW_V1.1.0/Libraries/STM32F4xx_StdPeriph_Driver/src/stm32f4xx_sdio.o
SDIO_SendSDIOSuspendCmd                           ../../../../1_Processor/STM32F4/STM32F4-Discovery_FW_V1.1.0/Libraries/STM32F4xx_StdPeriph_Driver/src/stm32f4xx_sdio.o
SDIO_SetPowerState                                ../../../../1_Processor/STM32F4/STM32F4-Discovery_FW_V1.1.0/Libraries/STM32F4xx_StdPeriph_Driver/src/stm32f4xx_sdio.o
SDIO_SetSDIOOperation                             ../../../../1_Processor/STM32F4/STM32F4-Discovery_FW_V1.1.0/Libraries/STM32F4xx_StdPeriph_Driver/src/stm32f4xx_sdio.o
SDIO_SetSDIOReadWaitMode                          ../../../../1_Processor/STM32F4/STM32F4-Discovery_FW_V1.1.0/Libraries/STM32F4xx_StdPeriph_Driver/src/stm32f4xx_sdio.o
SDIO_StartSDIOReadWait                            ../../../../1_Processor/STM32F4/STM32F4-Discovery_FW_V1.1.0/Libraries/STM32F4xx_StdPeriph_Driver/src/stm32f4xx_sdio.o
SDIO_StopSDIOReadWait                             ../../../../1_Processor/STM32F4/STM32F4-Discovery_FW_V1.1.0/Libraries/STM32F4xx_StdPeriph_Driver/src/stm32f4xx_sdio.o
SDIO_StructInit                                   ../../../../1_Processor/STM32F4/STM32F4-Discovery_FW_V1.1.0/Libraries/STM32F4xx_StdPeriph_Driver/src/stm32f4xx_sdio.o
SDIO_WriteData                                    ../../../../1_Processor/STM32F4/STM32F4-Discovery_FW_V1.1.0/Libraries/STM32F4xx_StdPeriph_Driver/src/stm32f4xx_sdio.o
SPI1_IRQHandler                                   ../../../../1_Processor/STM32F4/STM32F4-Discovery_FW_V1.1.0/Libraries/CMSIS/ST/STM32F4xx/Source/Templates/gcc_ride7/startup_stm32f4xx.o
SPI2_IRQHandler                                   ../../../../1_Processor/STM32F4/STM32F4-Discovery_FW_V1.1.0/Libraries/CMSIS/ST/STM32F4xx/Source/Templates/gcc_ride7/startup_stm32f4xx.o
SPI3_IRQHandler                                   ../../../../1_Processor/STM32F4/STM32F4-Discovery_FW_V1.1.0/Libraries/CMSIS/ST/STM32F4xx/Source/Templates/gcc_ride7/startup_stm32f4xx.o
SPI_BiDirectionalLineConfig                       ../../../../1_Processor/STM32F4/STM32F4-Discovery_FW_V1.1.0/Libraries/STM32F4xx_StdPeriph_Driver/src/stm32f4xx_spi.o
SPI_CalculateCRC                                  ../../../../1_Processor/STM32F4/STM32F4-Discovery_FW_V1.1.0/Libraries/STM32F4xx_StdPeriph_Driver/src/stm32f4xx_spi.o
SPI_Cmd                                           ../../../../1_Processor/STM32F4/STM32F4-Discovery_FW_V1.1.0/Libraries/STM32F4xx_StdPeriph_Driver/src/stm32f4xx_spi.o
                                                  ../../../../1_Processor/STM32F4/BSPLIB/spi.o
SPI_DataSizeConfig                                ../../../../1_Processor/STM32F4/STM32F4-Discovery_FW_V1.1.0/Libraries/STM32F4xx_StdPeriph_Driver/src/stm32f4xx_spi.o
SPI_GetCRC                                        ../../../../1_Processor/STM32F4/STM32F4-Discovery_FW_V1.1.0/Libraries/STM32F4xx_StdPeriph_Driver/src/stm32f4xx_spi.o
SPI_GetCRCPolynomial                              ../../../../1_Processor/STM32F4/STM32F4-Discovery_FW_V1.1.0/Libraries/STM32F4xx_StdPeriph_Driver/src/stm32f4xx_spi.o
SPI_I2S_ClearFlag                                 ../../../../1_Processor/STM32F4/STM32F4-Discovery_FW_V1.1.0/Libraries/STM32F4xx_StdPeriph_Driver/src/stm32f4xx_spi.o
SPI_I2S_ClearITPendingBit                         ../../../../1_Processor/STM32F4/STM32F4-Discovery_FW_V1.1.0/Libraries/STM32F4xx_StdPeriph_Driver/src/stm32f4xx_spi.o
SPI_I2S_DMACmd                                    ../../../../1_Processor/STM32F4/STM32F4-Discovery_FW_V1.1.0/Libraries/STM32F4xx_StdPeriph_Driver/src/stm32f4xx_spi.o
SPI_I2S_DeInit                                    ../../../../1_Processor/STM32F4/STM32F4-Discovery_FW_V1.1.0/Libraries/STM32F4xx_StdPeriph_Driver/src/stm32f4xx_spi.o
SPI_I2S_GetFlagStatus                             ../../../../1_Processor/STM32F4/STM32F4-Discovery_FW_V1.1.0/Libraries/STM32F4xx_StdPeriph_Driver/src/stm32f4xx_spi.o
                                                  ../../../../1_Processor/STM32F4/BSPLIB/spi.o
SPI_I2S_GetITStatus                               ../../../../1_Processor/STM32F4/STM32F4-Discovery_FW_V1.1.0/Libraries/STM32F4xx_StdPeriph_Driver/src/stm32f4xx_spi.o
SPI_I2S_ITConfig                                  ../../../../1_Processor/STM32F4/STM32F4-Discovery_FW_V1.1.0/Libraries/STM32F4xx_StdPeriph_Driver/src/stm32f4xx_spi.o
SPI_I2S_ReceiveData                               ../../../../1_Processor/STM32F4/STM32F4-Discovery_FW_V1.1.0/Libraries/STM32F4xx_StdPeriph_Driver/src/stm32f4xx_spi.o
                                                  ../../../../1_Processor/STM32F4/BSPLIB/spi.o
SPI_I2S_SendData                                  ../../../../1_Processor/STM32F4/STM32F4-Discovery_FW_V1.1.0/Libraries/STM32F4xx_StdPeriph_Driver/src/stm32f4xx_spi.o
                                                  ../../../../1_Processor/STM32F4/BSPLIB/spi.o
SPI_Init                                          ../../../../1_Processor/STM32F4/STM32F4-Discovery_FW_V1.1.0/Libraries/STM32F4xx_StdPeriph_Driver/src/stm32f4xx_spi.o
                                                  ../../../../1_Processor/STM32F4/BSPLIB/spi.o
SPI_NSSInternalSoftwareConfig                     ../../../../1_Processor/STM32F4/STM32F4-Discovery_FW_V1.1.0/Libraries/STM32F4xx_StdPeriph_Driver/src/stm32f4xx_spi.o
SPI_SSOutputCmd                                   ../../../../1_Processor/STM32F4/STM32F4-Discovery_FW_V1.1.0/Libraries/STM32F4xx_StdPeriph_Driver/src/stm32f4xx_spi.o
SPI_StructInit                                    ../../../../1_Processor/STM32F4/STM32F4-Discovery_FW_V1.1.0/Libraries/STM32F4xx_StdPeriph_Driver/src/stm32f4xx_spi.o
SPI_TIModeCmd                                     ../../../../1_Processor/STM32F4/STM32F4-Discovery_FW_V1.1.0/Libraries/STM32F4xx_StdPeriph_Driver/src/stm32f4xx_spi.o
SPI_TransmitCRC                                   ../../../../1_Processor/STM32F4/STM32F4-Discovery_FW_V1.1.0/Libraries/STM32F4xx_StdPeriph_Driver/src/stm32f4xx_spi.o
SVC_Handler                                       ../../../../1_Processor/STM32F4/STM32F4-Discovery_FW_V1.1.0/Libraries/CMSIS/ST/STM32F4xx/Source/Templates/gcc_ride7/startup_stm32f4xx.o
SYSCFG_CompensationCellCmd                        ../../../../1_Processor/STM32F4/STM32F4-Discovery_FW_V1.1.0/Libraries/STM32F4xx_StdPeriph_Driver/src/stm32f4xx_syscfg.o
SYSCFG_DeInit                                     ../../../../1_Processor/STM32F4/STM32F4-Discovery_FW_V1.1.0/Libraries/STM32F4xx_StdPeriph_Driver/src/stm32f4xx_syscfg.o
SYSCFG_ETH_MediaInterfaceConfig                   ../../../../1_Processor/STM32F4/STM32F4-Discovery_FW_V1.1.0/Libraries/STM32F4xx_StdPeriph_Driver/src/stm32f4xx_syscfg.o
SYSCFG_EXTILineConfig                             ../../../../1_Processor/STM32F4/STM32F4-Discovery_FW_V1.1.0/Libraries/STM32F4xx_StdPeriph_Driver/src/stm32f4xx_syscfg.o
                                                  ../../../../1_Processor/STM32F4/BSPLIB/wdg_wkup.o
                                                  ../../../../1_Processor/STM32F4/BSPLIB/pwm_in.o
SYSCFG_GetCompensationCellStatus                  ../../../../1_Processor/STM32F4/STM32F4-Discovery_FW_V1.1.0/Libraries/STM32F4xx_StdPeriph_Driver/src/stm32f4xx_syscfg.o
SYSCFG_MemoryRemapConfig                          ../../../../1_Processor/STM32F4/STM32F4-Discovery_FW_V1.1.0/Libraries/STM32F4xx_StdPeriph_Driver/src/stm32f4xx_syscfg.o
SysTick_CLKSourceConfig                           ../../../../1_Processor/STM32F4/STM32F4-Discovery_FW_V1.1.0/Libraries/STM32F4xx_StdPeriph_Driver/src/misc.o
SysTick_Handler                                   ../../../../1_Processor/STM32F4/STM32F4-Discovery_FW_V1.1.0/Libraries/CMSIS/ST/STM32F4xx/Source/Templates/gcc_ride7/startup_stm32f4xx.o
SystemCoreClock                                   ../../../../1_Processor/STM32F4/STM32F4-Discovery_FW_V1.1.0/Libraries/CMSIS/ST/STM32F4xx/Source/Templates/system_stm32f4xx.o
                                                  ../../../../1_Processor/STM32F4/BSPLIB/delay.o
SystemCoreClockUpdate                             ../../../../1_Processor/STM32F4/STM32F4-Discovery_FW_V1.1.0/Libraries/CMSIS/ST/STM32F4xx/Source/Templates/system_stm32f4xx.o
SystemInit                                        ../../../../1_Processor/STM32F4/STM32F4-Discovery_FW_V1.1.0/Libraries/CMSIS/ST/STM32F4xx/Source/Templates/system_stm32f4xx.o
                                                  ../../../../1_Processor/STM32F4/STM32F4-Discovery_FW_V1.1.0/Libraries/CMSIS/ST/STM32F4xx/Source/Templates/gcc_ride7/startup_stm32f4xx.o
TAMP_STAMP_IRQHandler                             ../../../../1_Processor/STM32F4/STM32F4-Discovery_FW_V1.1.0/Libraries/CMSIS/ST/STM32F4xx/Source/Templates/gcc_ride7/startup_stm32f4xx.o
TIM10_NVIC_Configuration                          ../../../../1_Processor/STM32F4/BSPLIB/nvic.o
                                                  ../../../../1_Processor/STM32F4/BSPLIB/timer.o
TIM11_NVIC_Configuration                          ../../../../1_Processor/STM32F4/BSPLIB/nvic.o
                                                  ../../../../1_Processor/STM32F4/BSPLIB/timer.o
TIM12_NVIC_Configuration                          ../../../../1_Processor/STM32F4/BSPLIB/nvic.o
                                                  ../../../../1_Processor/STM32F4/BSPLIB/timer.o
TIM13_NVIC_Configuration                          ../../../../1_Processor/STM32F4/BSPLIB/nvic.o
                                                  ../../../../1_Processor/STM32F4/BSPLIB/timer.o
TIM14_NVIC_Configuration                          ../../../../1_Processor/STM32F4/BSPLIB/nvic.o
                                                  ../../../../1_Processor/STM32F4/BSPLIB/timer.o
TIM1_BRK_TIM9_IRQHandler                          ../../../../1_Processor/STM32F4/STM32F4-Discovery_FW_V1.1.0/Libraries/CMSIS/ST/STM32F4xx/Source/Templates/gcc_ride7/startup_stm32f4xx.o
TIM1_CC_IRQHandler                                ../../../../1_Processor/STM32F4/STM32F4-Discovery_FW_V1.1.0/Libraries/CMSIS/ST/STM32F4xx/Source/Templates/gcc_ride7/startup_stm32f4xx.o
TIM1_NVIC_Configuration                           ../../../../1_Processor/STM32F4/BSPLIB/nvic.o
                                                  ../../../../1_Processor/STM32F4/BSPLIB/timer.o
TIM1_TRG_COM_TIM11_IRQHandler                     ../../../../1_Processor/STM32F4/STM32F4-Discovery_FW_V1.1.0/Libraries/CMSIS/ST/STM32F4xx/Source/Templates/gcc_ride7/startup_stm32f4xx.o
TIM1_UP_TIM10_IRQHandler                          ../../../../1_Processor/STM32F4/STM32F4-Discovery_FW_V1.1.0/Libraries/CMSIS/ST/STM32F4xx/Source/Templates/gcc_ride7/startup_stm32f4xx.o
TIM2_IRQHandler                                   ../../../../1_Processor/STM32F4/STM32F4-Discovery_FW_V1.1.0/Libraries/CMSIS/ST/STM32F4xx/Source/Templates/gcc_ride7/startup_stm32f4xx.o
TIM2_NVIC_Configuration                           ../../../../1_Processor/STM32F4/BSPLIB/nvic.o
                                                  ../../../../1_Processor/STM32F4/BSPLIB/timer.o
TIM3_IRQHandler                                   ../../../../1_Processor/STM32F4/STM32F4-Discovery_FW_V1.1.0/Libraries/CMSIS/ST/STM32F4xx/Source/Templates/gcc_ride7/startup_stm32f4xx.o
TIM3_NVIC_Configuration                           ../../../../1_Processor/STM32F4/BSPLIB/nvic.o
                                                  ../../../../1_Processor/STM32F4/BSPLIB/timer.o
TIM4_IRQHandler                                   ../../../../1_Processor/STM32F4/STM32F4-Discovery_FW_V1.1.0/Libraries/CMSIS/ST/STM32F4xx/Source/Templates/gcc_ride7/startup_stm32f4xx.o
TIM4_NVIC_Configuration                           ../../../../1_Processor/STM32F4/BSPLIB/nvic.o
                                                  ../../../../1_Processor/STM32F4/BSPLIB/timer.o
TIM5_IRQHandler                                   ../../../../1_Processor/STM32F4/BSPLIB/delay.o
                                                  ../../../../1_Processor/STM32F4/STM32F4-Discovery_FW_V1.1.0/Libraries/CMSIS/ST/STM32F4xx/Source/Templates/gcc_ride7/startup_stm32f4xx.o
TIM5_NVIC_Configuration                           ../../../../1_Processor/STM32F4/BSPLIB/nvic.o
                                                  ../../../../1_Processor/STM32F4/BSPLIB/timer.o
TIM6_DAC_IRQHandler                               ../src/stm32f4xx_it.o
                                                  ../../../../1_Processor/STM32F4/STM32F4-Discovery_FW_V1.1.0/Libraries/CMSIS/ST/STM32F4xx/Source/Templates/gcc_ride7/startup_stm32f4xx.o
TIM6_NVIC_Configuration                           ../../../../1_Processor/STM32F4/BSPLIB/nvic.o
                                                  ../../../../1_Processor/STM32F4/BSPLIB/timer.o
TIM7_IRQHandler                                   ../../../../1_Processor/STM32F4/STM32F4-Discovery_FW_V1.1.0/Libraries/CMSIS/ST/STM32F4xx/Source/Templates/gcc_ride7/startup_stm32f4xx.o
TIM7_NVIC_Configuration                           ../../../../1_Processor/STM32F4/BSPLIB/nvic.o
                                                  ../../../../1_Processor/STM32F4/BSPLIB/timer.o
TIM8_BRK_TIM12_IRQHandler                         ../../../../1_Processor/STM32F4/STM32F4-Discovery_FW_V1.1.0/Libraries/CMSIS/ST/STM32F4xx/Source/Templates/gcc_ride7/startup_stm32f4xx.o
TIM8_CC_IRQHandler                                ../../../../1_Processor/STM32F4/STM32F4-Discovery_FW_V1.1.0/Libraries/CMSIS/ST/STM32F4xx/Source/Templates/gcc_ride7/startup_stm32f4xx.o
TIM8_NVIC_Configuration                           ../../../../1_Processor/STM32F4/BSPLIB/nvic.o
                                                  ../../../../1_Processor/STM32F4/BSPLIB/timer.o
TIM8_TRG_COM_TIM14_IRQHandler                     ../../../../1_Processor/STM32F4/STM32F4-Discovery_FW_V1.1.0/Libraries/CMSIS/ST/STM32F4xx/Source/Templates/gcc_ride7/startup_stm32f4xx.o
TIM8_UP_TIM13_IRQHandler                          ../../../../1_Processor/STM32F4/STM32F4-Discovery_FW_V1.1.0/Libraries/CMSIS/ST/STM32F4xx/Source/Templates/gcc_ride7/startup_stm32f4xx.o
TIM9_NVIC_Configuration                           ../../../../1_Processor/STM32F4/BSPLIB/nvic.o
                                                  ../../../../1_Processor/STM32F4/BSPLIB/timer.o
TIM_ARRPreloadConfig                              ../../../../1_Processor/STM32F4/STM32F4-Discovery_FW_V1.1.0/Libraries/STM32F4xx_StdPeriph_Driver/src/stm32f4xx_tim.o
                                                  ../../../../1_Processor/STM32F4/BSPLIB/pwm_out.o
TIM_BDTRConfig                                    ../../../../1_Processor/STM32F4/STM32F4-Discovery_FW_V1.1.0/Libraries/STM32F4xx_StdPeriph_Driver/src/stm32f4xx_tim.o
TIM_BDTRStructInit                                ../../../../1_Processor/STM32F4/STM32F4-Discovery_FW_V1.1.0/Libraries/STM32F4xx_StdPeriph_Driver/src/stm32f4xx_tim.o
TIM_CCPreloadControl                              ../../../../1_Processor/STM32F4/STM32F4-Discovery_FW_V1.1.0/Libraries/STM32F4xx_StdPeriph_Driver/src/stm32f4xx_tim.o
TIM_CCxCmd                                        ../../../../1_Processor/STM32F4/STM32F4-Discovery_FW_V1.1.0/Libraries/STM32F4xx_StdPeriph_Driver/src/stm32f4xx_tim.o
TIM_CCxNCmd                                       ../../../../1_Processor/STM32F4/STM32F4-Discovery_FW_V1.1.0/Libraries/STM32F4xx_StdPeriph_Driver/src/stm32f4xx_tim.o
TIM_ClearFlag                                     ../../../../1_Processor/STM32F4/STM32F4-Discovery_FW_V1.1.0/Libraries/STM32F4xx_StdPeriph_Driver/src/stm32f4xx_tim.o
                                                  ../../../../1_Processor/STM32F4/BSPLIB/timer.o
                                                  ../../../../1_Processor/STM32F4/BSPLIB/delay.o
TIM_ClearITPendingBit                             ../../../../1_Processor/STM32F4/STM32F4-Discovery_FW_V1.1.0/Libraries/STM32F4xx_StdPeriph_Driver/src/stm32f4xx_tim.o
                                                  ../src/stm32f4xx_it.o
                                                  ../../../../1_Processor/STM32F4/BSPLIB/delay.o
TIM_ClearOC1Ref                                   ../../../../1_Processor/STM32F4/STM32F4-Discovery_FW_V1.1.0/Libraries/STM32F4xx_StdPeriph_Driver/src/stm32f4xx_tim.o
TIM_ClearOC2Ref                                   ../../../../1_Processor/STM32F4/STM32F4-Discovery_FW_V1.1.0/Libraries/STM32F4xx_StdPeriph_Driver/src/stm32f4xx_tim.o
TIM_ClearOC3Ref                                   ../../../../1_Processor/STM32F4/STM32F4-Discovery_FW_V1.1.0/Libraries/STM32F4xx_StdPeriph_Driver/src/stm32f4xx_tim.o
TIM_ClearOC4Ref                                   ../../../../1_Processor/STM32F4/STM32F4-Discovery_FW_V1.1.0/Libraries/STM32F4xx_StdPeriph_Driver/src/stm32f4xx_tim.o
TIM_Cmd                                           ../../../../1_Processor/STM32F4/STM32F4-Discovery_FW_V1.1.0/Libraries/STM32F4xx_StdPeriph_Driver/src/stm32f4xx_tim.o
                                                  ../../../../1_Processor/STM32F4/BSPLIB/timer.o
                                                  ../../../../1_Processor/STM32F4/BSPLIB/pwm_out.o
                                                  ../../../../1_Processor/STM32F4/BSPLIB/encoder.o
                                                  ../../../../1_Processor/STM32F4/BSPLIB/delay.o
TIM_CounterModeConfig                             ../../../../1_Processor/STM32F4/STM32F4-Discovery_FW_V1.1.0/Libraries/STM32F4xx_StdPeriph_Driver/src/stm32f4xx_tim.o
TIM_CtrlPWMOutputs                                ../../../../1_Processor/STM32F4/STM32F4-Discovery_FW_V1.1.0/Libraries/STM32F4xx_StdPeriph_Driver/src/stm32f4xx_tim.o
                                                  ../../../../1_Processor/STM32F4/BSPLIB/pwm_out.o
TIM_DMACmd                                        ../../../../1_Processor/STM32F4/STM32F4-Discovery_FW_V1.1.0/Libraries/STM32F4xx_StdPeriph_Driver/src/stm32f4xx_tim.o
TIM_DMAConfig                                     ../../../../1_Processor/STM32F4/STM32F4-Discovery_FW_V1.1.0/Libraries/STM32F4xx_StdPeriph_Driver/src/stm32f4xx_tim.o
TIM_DeInit                                        ../../../../1_Processor/STM32F4/STM32F4-Discovery_FW_V1.1.0/Libraries/STM32F4xx_StdPeriph_Driver/src/stm32f4xx_tim.o
                                                  ../../../../1_Processor/STM32F4/BSPLIB/timer.o
                                                  ../../../../1_Processor/STM32F4/BSPLIB/delay.o
TIM_ETRClockMode1Config                           ../../../../1_Processor/STM32F4/STM32F4-Discovery_FW_V1.1.0/Libraries/STM32F4xx_StdPeriph_Driver/src/stm32f4xx_tim.o
TIM_ETRClockMode2Config                           ../../../../1_Processor/STM32F4/STM32F4-Discovery_FW_V1.1.0/Libraries/STM32F4xx_StdPeriph_Driver/src/stm32f4xx_tim.o
TIM_ETRConfig                                     ../../../../1_Processor/STM32F4/STM32F4-Discovery_FW_V1.1.0/Libraries/STM32F4xx_StdPeriph_Driver/src/stm32f4xx_tim.o
TIM_EncoderInterfaceConfig                        ../../../../1_Processor/STM32F4/STM32F4-Discovery_FW_V1.1.0/Libraries/STM32F4xx_StdPeriph_Driver/src/stm32f4xx_tim.o
                                                  ../../../../1_Processor/STM32F4/BSPLIB/encoder.o
TIM_ForcedOC1Config                               ../../../../1_Processor/STM32F4/STM32F4-Discovery_FW_V1.1.0/Libraries/STM32F4xx_StdPeriph_Driver/src/stm32f4xx_tim.o
TIM_ForcedOC2Config                               ../../../../1_Processor/STM32F4/STM32F4-Discovery_FW_V1.1.0/Libraries/STM32F4xx_StdPeriph_Driver/src/stm32f4xx_tim.o
TIM_ForcedOC3Config                               ../../../../1_Processor/STM32F4/STM32F4-Discovery_FW_V1.1.0/Libraries/STM32F4xx_StdPeriph_Driver/src/stm32f4xx_tim.o
TIM_ForcedOC4Config                               ../../../../1_Processor/STM32F4/STM32F4-Discovery_FW_V1.1.0/Libraries/STM32F4xx_StdPeriph_Driver/src/stm32f4xx_tim.o
TIM_GenerateEvent                                 ../../../../1_Processor/STM32F4/STM32F4-Discovery_FW_V1.1.0/Libraries/STM32F4xx_StdPeriph_Driver/src/stm32f4xx_tim.o
TIM_GetCapture1                                   ../../../../1_Processor/STM32F4/STM32F4-Discovery_FW_V1.1.0/Libraries/STM32F4xx_StdPeriph_Driver/src/stm32f4xx_tim.o
TIM_GetCapture2                                   ../../../../1_Processor/STM32F4/STM32F4-Discovery_FW_V1.1.0/Libraries/STM32F4xx_StdPeriph_Driver/src/stm32f4xx_tim.o
TIM_GetCapture3                                   ../../../../1_Processor/STM32F4/STM32F4-Discovery_FW_V1.1.0/Libraries/STM32F4xx_StdPeriph_Driver/src/stm32f4xx_tim.o
TIM_GetCapture4                                   ../../../../1_Processor/STM32F4/STM32F4-Discovery_FW_V1.1.0/Libraries/STM32F4xx_StdPeriph_Driver/src/stm32f4xx_tim.o
TIM_GetCounter                                    ../../../../1_Processor/STM32F4/STM32F4-Discovery_FW_V1.1.0/Libraries/STM32F4xx_StdPeriph_Driver/src/stm32f4xx_tim.o
TIM_GetFlagStatus                                 ../../../../1_Processor/STM32F4/STM32F4-Discovery_FW_V1.1.0/Libraries/STM32F4xx_StdPeriph_Driver/src/stm32f4xx_tim.o
TIM_GetITStatus                                   ../../../../1_Processor/STM32F4/STM32F4-Discovery_FW_V1.1.0/Libraries/STM32F4xx_StdPeriph_Driver/src/stm32f4xx_tim.o
                                                  ../src/stm32f4xx_it.o
                                                  ../../../../1_Processor/STM32F4/BSPLIB/delay.o
TIM_GetPrescaler                                  ../../../../1_Processor/STM32F4/STM32F4-Discovery_FW_V1.1.0/Libraries/STM32F4xx_StdPeriph_Driver/src/stm32f4xx_tim.o
TIM_ICInit                                        ../../../../1_Processor/STM32F4/STM32F4-Discovery_FW_V1.1.0/Libraries/STM32F4xx_StdPeriph_Driver/src/stm32f4xx_tim.o
                                                  ../../../../1_Processor/STM32F4/BSPLIB/encoder.o
TIM_ICStructInit                                  ../../../../1_Processor/STM32F4/STM32F4-Discovery_FW_V1.1.0/Libraries/STM32F4xx_StdPeriph_Driver/src/stm32f4xx_tim.o
                                                  ../../../../1_Processor/STM32F4/BSPLIB/encoder.o
TIM_ITConfig                                      ../../../../1_Processor/STM32F4/STM32F4-Discovery_FW_V1.1.0/Libraries/STM32F4xx_StdPeriph_Driver/src/stm32f4xx_tim.o
                                                  ../../../../1_Processor/STM32F4/BSPLIB/timer.o
                                                  ../../../../1_Processor/STM32F4/BSPLIB/delay.o
TIM_ITRxExternalClockConfig                       ../../../../1_Processor/STM32F4/STM32F4-Discovery_FW_V1.1.0/Libraries/STM32F4xx_StdPeriph_Driver/src/stm32f4xx_tim.o
TIM_InternalClockConfig                           ../../../../1_Processor/STM32F4/STM32F4-Discovery_FW_V1.1.0/Libraries/STM32F4xx_StdPeriph_Driver/src/stm32f4xx_tim.o
TIM_OC1FastConfig                                 ../../../../1_Processor/STM32F4/STM32F4-Discovery_FW_V1.1.0/Libraries/STM32F4xx_StdPeriph_Driver/src/stm32f4xx_tim.o
TIM_OC1Init                                       ../../../../1_Processor/STM32F4/STM32F4-Discovery_FW_V1.1.0/Libraries/STM32F4xx_StdPeriph_Driver/src/stm32f4xx_tim.o
                                                  ../../../../1_Processor/STM32F4/BSPLIB/pwm_out.o
TIM_OC1NPolarityConfig                            ../../../../1_Processor/STM32F4/STM32F4-Discovery_FW_V1.1.0/Libraries/STM32F4xx_StdPeriph_Driver/src/stm32f4xx_tim.o
TIM_OC1PolarityConfig                             ../../../../1_Processor/STM32F4/STM32F4-Discovery_FW_V1.1.0/Libraries/STM32F4xx_StdPeriph_Driver/src/stm32f4xx_tim.o
TIM_OC1PreloadConfig                              ../../../../1_Processor/STM32F4/STM32F4-Discovery_FW_V1.1.0/Libraries/STM32F4xx_StdPeriph_Driver/src/stm32f4xx_tim.o
TIM_OC2FastConfig                                 ../../../../1_Processor/STM32F4/STM32F4-Discovery_FW_V1.1.0/Libraries/STM32F4xx_StdPeriph_Driver/src/stm32f4xx_tim.o
TIM_OC2Init                                       ../../../../1_Processor/STM32F4/STM32F4-Discovery_FW_V1.1.0/Libraries/STM32F4xx_StdPeriph_Driver/src/stm32f4xx_tim.o
                                                  ../../../../1_Processor/STM32F4/BSPLIB/pwm_out.o
TIM_OC2NPolarityConfig                            ../../../../1_Processor/STM32F4/STM32F4-Discovery_FW_V1.1.0/Libraries/STM32F4xx_StdPeriph_Driver/src/stm32f4xx_tim.o
TIM_OC2PolarityConfig                             ../../../../1_Processor/STM32F4/STM32F4-Discovery_FW_V1.1.0/Libraries/STM32F4xx_StdPeriph_Driver/src/stm32f4xx_tim.o
TIM_OC2PreloadConfig                              ../../../../1_Processor/STM32F4/STM32F4-Discovery_FW_V1.1.0/Libraries/STM32F4xx_StdPeriph_Driver/src/stm32f4xx_tim.o
TIM_OC3FastConfig                                 ../../../../1_Processor/STM32F4/STM32F4-Discovery_FW_V1.1.0/Libraries/STM32F4xx_StdPeriph_Driver/src/stm32f4xx_tim.o
TIM_OC3Init                                       ../../../../1_Processor/STM32F4/STM32F4-Discovery_FW_V1.1.0/Libraries/STM32F4xx_StdPeriph_Driver/src/stm32f4xx_tim.o
                                                  ../../../../1_Processor/STM32F4/BSPLIB/pwm_out.o
TIM_OC3NPolarityConfig                            ../../../../1_Processor/STM32F4/STM32F4-Discovery_FW_V1.1.0/Libraries/STM32F4xx_StdPeriph_Driver/src/stm32f4xx_tim.o
TIM_OC3PolarityConfig                             ../../../../1_Processor/STM32F4/STM32F4-Discovery_FW_V1.1.0/Libraries/STM32F4xx_StdPeriph_Driver/src/stm32f4xx_tim.o
TIM_OC3PreloadConfig                              ../../../../1_Processor/STM32F4/STM32F4-Discovery_FW_V1.1.0/Libraries/STM32F4xx_StdPeriph_Driver/src/stm32f4xx_tim.o
TIM_OC4FastConfig                                 ../../../../1_Processor/STM32F4/STM32F4-Discovery_FW_V1.1.0/Libraries/STM32F4xx_StdPeriph_Driver/src/stm32f4xx_tim.o
TIM_OC4Init                                       ../../../../1_Processor/STM32F4/STM32F4-Discovery_FW_V1.1.0/Libraries/STM32F4xx_StdPeriph_Driver/src/stm32f4xx_tim.o
                                                  ../../../../1_Processor/STM32F4/BSPLIB/pwm_out.o
TIM_OC4PolarityConfig                             ../../../../1_Processor/STM32F4/STM32F4-Discovery_FW_V1.1.0/Libraries/STM32F4xx_StdPeriph_Driver/src/stm32f4xx_tim.o
TIM_OC4PreloadConfig                              ../../../../1_Processor/STM32F4/STM32F4-Discovery_FW_V1.1.0/Libraries/STM32F4xx_StdPeriph_Driver/src/stm32f4xx_tim.o
TIM_OCStructInit                                  ../../../../1_Processor/STM32F4/STM32F4-Discovery_FW_V1.1.0/Libraries/STM32F4xx_StdPeriph_Driver/src/stm32f4xx_tim.o
TIM_PWMIConfig                                    ../../../../1_Processor/STM32F4/STM32F4-Discovery_FW_V1.1.0/Libraries/STM32F4xx_StdPeriph_Driver/src/stm32f4xx_tim.o
TIM_PrescalerConfig                               ../../../../1_Processor/STM32F4/STM32F4-Discovery_FW_V1.1.0/Libraries/STM32F4xx_StdPeriph_Driver/src/stm32f4xx_tim.o
TIM_RemapConfig                                   ../../../../1_Processor/STM32F4/STM32F4-Discovery_FW_V1.1.0/Libraries/STM32F4xx_StdPeriph_Driver/src/stm32f4xx_tim.o
TIM_SelectCCDMA                                   ../../../../1_Processor/STM32F4/STM32F4-Discovery_FW_V1.1.0/Libraries/STM32F4xx_StdPeriph_Driver/src/stm32f4xx_tim.o
TIM_SelectCOM                                     ../../../../1_Processor/STM32F4/STM32F4-Discovery_FW_V1.1.0/Libraries/STM32F4xx_StdPeriph_Driver/src/stm32f4xx_tim.o
TIM_SelectHallSensor                              ../../../../1_Processor/STM32F4/STM32F4-Discovery_FW_V1.1.0/Libraries/STM32F4xx_StdPeriph_Driver/src/stm32f4xx_tim.o
TIM_SelectInputTrigger                            ../../../../1_Processor/STM32F4/STM32F4-Discovery_FW_V1.1.0/Libraries/STM32F4xx_StdPeriph_Driver/src/stm32f4xx_tim.o
TIM_SelectMasterSlaveMode                         ../../../../1_Processor/STM32F4/STM32F4-Discovery_FW_V1.1.0/Libraries/STM32F4xx_StdPeriph_Driver/src/stm32f4xx_tim.o
TIM_SelectOCxM                                    ../../../../1_Processor/STM32F4/STM32F4-Discovery_FW_V1.1.0/Libraries/STM32F4xx_StdPeriph_Driver/src/stm32f4xx_tim.o
TIM_SelectOnePulseMode                            ../../../../1_Processor/STM32F4/STM32F4-Discovery_FW_V1.1.0/Libraries/STM32F4xx_StdPeriph_Driver/src/stm32f4xx_tim.o
TIM_SelectOutputTrigger                           ../../../../1_Processor/STM32F4/STM32F4-Discovery_FW_V1.1.0/Libraries/STM32F4xx_StdPeriph_Driver/src/stm32f4xx_tim.o
TIM_SelectSlaveMode                               ../../../../1_Processor/STM32F4/STM32F4-Discovery_FW_V1.1.0/Libraries/STM32F4xx_StdPeriph_Driver/src/stm32f4xx_tim.o
TIM_SetAutoreload                                 ../../../../1_Processor/STM32F4/STM32F4-Discovery_FW_V1.1.0/Libraries/STM32F4xx_StdPeriph_Driver/src/stm32f4xx_tim.o
TIM_SetClockDivision                              ../../../../1_Processor/STM32F4/STM32F4-Discovery_FW_V1.1.0/Libraries/STM32F4xx_StdPeriph_Driver/src/stm32f4xx_tim.o
TIM_SetCompare1                                   ../../../../1_Processor/STM32F4/STM32F4-Discovery_FW_V1.1.0/Libraries/STM32F4xx_StdPeriph_Driver/src/stm32f4xx_tim.o
                                                  ../../../../1_Processor/STM32F4/BSPLIB/pwm_out.o
TIM_SetCompare2                                   ../../../../1_Processor/STM32F4/STM32F4-Discovery_FW_V1.1.0/Libraries/STM32F4xx_StdPeriph_Driver/src/stm32f4xx_tim.o
                                                  ../../../../1_Processor/STM32F4/BSPLIB/pwm_out.o
TIM_SetCompare3                                   ../../../../1_Processor/STM32F4/STM32F4-Discovery_FW_V1.1.0/Libraries/STM32F4xx_StdPeriph_Driver/src/stm32f4xx_tim.o
                                                  ../../../../1_Processor/STM32F4/BSPLIB/pwm_out.o
TIM_SetCompare4                                   ../../../../1_Processor/STM32F4/STM32F4-Discovery_FW_V1.1.0/Libraries/STM32F4xx_StdPeriph_Driver/src/stm32f4xx_tim.o
                                                  ../../../../1_Processor/STM32F4/BSPLIB/pwm_out.o
TIM_SetCounter                                    ../../../../1_Processor/STM32F4/STM32F4-Discovery_FW_V1.1.0/Libraries/STM32F4xx_StdPeriph_Driver/src/stm32f4xx_tim.o
TIM_SetIC1Prescaler                               ../../../../1_Processor/STM32F4/STM32F4-Discovery_FW_V1.1.0/Libraries/STM32F4xx_StdPeriph_Driver/src/stm32f4xx_tim.o
TIM_SetIC2Prescaler                               ../../../../1_Processor/STM32F4/STM32F4-Discovery_FW_V1.1.0/Libraries/STM32F4xx_StdPeriph_Driver/src/stm32f4xx_tim.o
TIM_SetIC3Prescaler                               ../../../../1_Processor/STM32F4/STM32F4-Discovery_FW_V1.1.0/Libraries/STM32F4xx_StdPeriph_Driver/src/stm32f4xx_tim.o
TIM_SetIC4Prescaler                               ../../../../1_Processor/STM32F4/STM32F4-Discovery_FW_V1.1.0/Libraries/STM32F4xx_StdPeriph_Driver/src/stm32f4xx_tim.o
TIM_TIxExternalClockConfig                        ../../../../1_Processor/STM32F4/STM32F4-Discovery_FW_V1.1.0/Libraries/STM32F4xx_StdPeriph_Driver/src/stm32f4xx_tim.o
TIM_TimeBaseInit                                  ../../../../1_Processor/STM32F4/STM32F4-Discovery_FW_V1.1.0/Libraries/STM32F4xx_StdPeriph_Driver/src/stm32f4xx_tim.o
                                                  ../../../../1_Processor/STM32F4/BSPLIB/timer.o
                                                  ../../../../1_Processor/STM32F4/BSPLIB/pwm_out.o
                                                  ../../../../1_Processor/STM32F4/BSPLIB/delay.o
TIM_TimeBaseStructInit                            ../../../../1_Processor/STM32F4/STM32F4-Discovery_FW_V1.1.0/Libraries/STM32F4xx_StdPeriph_Driver/src/stm32f4xx_tim.o
TIM_UpdateDisableConfig                           ../../../../1_Processor/STM32F4/STM32F4-Discovery_FW_V1.1.0/Libraries/STM32F4xx_StdPeriph_Driver/src/stm32f4xx_tim.o
TIM_UpdateRequestConfig                           ../../../../1_Processor/STM32F4/STM32F4-Discovery_FW_V1.1.0/Libraries/STM32F4xx_StdPeriph_Driver/src/stm32f4xx_tim.o
UART4_IRQHandler                                  ../../../../1_Processor/STM32F4/STM32F4-Discovery_FW_V1.1.0/Libraries/CMSIS/ST/STM32F4xx/Source/Templates/gcc_ride7/startup_stm32f4xx.o
UART4_NVIC_Configuration                          ../../../../1_Processor/STM32F4/BSPLIB/nvic.o
                                                  ../../../../1_Processor/STM32F4/BSPLIB/usart.o
UART5_IRQHandler                                  ../../../../1_Processor/STM32F4/STM32F4-Discovery_FW_V1.1.0/Libraries/CMSIS/ST/STM32F4xx/Source/Templates/gcc_ride7/startup_stm32f4xx.o
UART5_NVIC_Configuration                          ../../../../1_Processor/STM32F4/BSPLIB/nvic.o
                                                  ../../../../1_Processor/STM32F4/BSPLIB/usart.o
USART1_IRQHandler                                 ../src/stm32f4xx_it.o
                                                  ../../../../1_Processor/STM32F4/STM32F4-Discovery_FW_V1.1.0/Libraries/CMSIS/ST/STM32F4xx/Source/Templates/gcc_ride7/startup_stm32f4xx.o
USART1_NVIC_Configuration                         ../../../../1_Processor/STM32F4/BSPLIB/nvic.o
                                                  ../../../../1_Processor/STM32F4/BSPLIB/usart.o
USART2_IRQHandler                                 ../../../../1_Processor/STM32F4/STM32F4-Discovery_FW_V1.1.0/Libraries/CMSIS/ST/STM32F4xx/Source/Templates/gcc_ride7/startup_stm32f4xx.o
USART2_NVIC_Configuration                         ../../../../1_Processor/STM32F4/BSPLIB/nvic.o
                                                  ../../../../1_Processor/STM32F4/BSPLIB/usart.o
USART3_IRQHandler                                 ../../../../1_Processor/STM32F4/STM32F4-Discovery_FW_V1.1.0/Libraries/CMSIS/ST/STM32F4xx/Source/Templates/gcc_ride7/startup_stm32f4xx.o
USART3_NVIC_Configuration                         ../../../../1_Processor/STM32F4/BSPLIB/nvic.o
                                                  ../../../../1_Processor/STM32F4/BSPLIB/usart.o
USART6_IRQHandler                                 ../../../../1_Processor/STM32F4/STM32F4-Discovery_FW_V1.1.0/Libraries/CMSIS/ST/STM32F4xx/Source/Templates/gcc_ride7/startup_stm32f4xx.o
USART6_NVIC_Configuration                         ../../../../1_Processor/STM32F4/BSPLIB/nvic.o
                                                  ../../../../1_Processor/STM32F4/BSPLIB/usart.o
USART_ClearFlag                                   ../../../../1_Processor/STM32F4/STM32F4-Discovery_FW_V1.1.0/Libraries/STM32F4xx_StdPeriph_Driver/src/stm32f4xx_usart.o
USART_ClearITPendingBit                           ../../../../1_Processor/STM32F4/STM32F4-Discovery_FW_V1.1.0/Libraries/STM32F4xx_StdPeriph_Driver/src/stm32f4xx_usart.o
                                                  ../src/stm32f4xx_it.o
                                                  ../../../../1_Processor/STM32F4/BSPLIB/usart.o
USART_ClockInit                                   ../../../../1_Processor/STM32F4/STM32F4-Discovery_FW_V1.1.0/Libraries/STM32F4xx_StdPeriph_Driver/src/stm32f4xx_usart.o
USART_ClockStructInit                             ../../../../1_Processor/STM32F4/STM32F4-Discovery_FW_V1.1.0/Libraries/STM32F4xx_StdPeriph_Driver/src/stm32f4xx_usart.o
USART_Cmd                                         ../../../../1_Processor/STM32F4/STM32F4-Discovery_FW_V1.1.0/Libraries/STM32F4xx_StdPeriph_Driver/src/stm32f4xx_usart.o
                                                  ../../../../1_Processor/STM32F4/BSPLIB/usart.o
USART_DMACmd                                      ../../../../1_Processor/STM32F4/STM32F4-Discovery_FW_V1.1.0/Libraries/STM32F4xx_StdPeriph_Driver/src/stm32f4xx_usart.o
USART_DeInit                                      ../../../../1_Processor/STM32F4/STM32F4-Discovery_FW_V1.1.0/Libraries/STM32F4xx_StdPeriph_Driver/src/stm32f4xx_usart.o
USART_GetFlagStatus                               ../../../../1_Processor/STM32F4/STM32F4-Discovery_FW_V1.1.0/Libraries/STM32F4xx_StdPeriph_Driver/src/stm32f4xx_usart.o
                                                  ../../../../1_Processor/BoardAbstract/control_unit_v1.o
                                                  ../../../../1_Processor/STM32F4/BSPLIB/usart.o
USART_GetITStatus                                 ../../../../1_Processor/STM32F4/STM32F4-Discovery_FW_V1.1.0/Libraries/STM32F4xx_StdPeriph_Driver/src/stm32f4xx_usart.o
USART_HalfDuplexCmd                               ../../../../1_Processor/STM32F4/STM32F4-Discovery_FW_V1.1.0/Libraries/STM32F4xx_StdPeriph_Driver/src/stm32f4xx_usart.o
USART_ITConfig                                    ../../../../1_Processor/STM32F4/STM32F4-Discovery_FW_V1.1.0/Libraries/STM32F4xx_StdPeriph_Driver/src/stm32f4xx_usart.o
                                                  ../../../../1_Processor/STM32F4/BSPLIB/usart.o
USART_Init                                        ../../../../1_Processor/STM32F4/STM32F4-Discovery_FW_V1.1.0/Libraries/STM32F4xx_StdPeriph_Driver/src/stm32f4xx_usart.o
                                                  ../../../../1_Processor/STM32F4/BSPLIB/usart.o
USART_IrDACmd                                     ../../../../1_Processor/STM32F4/STM32F4-Discovery_FW_V1.1.0/Libraries/STM32F4xx_StdPeriph_Driver/src/stm32f4xx_usart.o
USART_IrDAConfig                                  ../../../../1_Processor/STM32F4/STM32F4-Discovery_FW_V1.1.0/Libraries/STM32F4xx_StdPeriph_Driver/src/stm32f4xx_usart.o
USART_LINBreakDetectLengthConfig                  ../../../../1_Processor/STM32F4/STM32F4-Discovery_FW_V1.1.0/Libraries/STM32F4xx_StdPeriph_Driver/src/stm32f4xx_usart.o
USART_LINCmd                                      ../../../../1_Processor/STM32F4/STM32F4-Discovery_FW_V1.1.0/Libraries/STM32F4xx_StdPeriph_Driver/src/stm32f4xx_usart.o
USART_OneBitMethodCmd                             ../../../../1_Processor/STM32F4/STM32F4-Discovery_FW_V1.1.0/Libraries/STM32F4xx_StdPeriph_Driver/src/stm32f4xx_usart.o
USART_OverSampling8Cmd                            ../../../../1_Processor/STM32F4/STM32F4-Discovery_FW_V1.1.0/Libraries/STM32F4xx_StdPeriph_Driver/src/stm32f4xx_usart.o
USART_ReceiveData                                 ../../../../1_Processor/STM32F4/STM32F4-Discovery_FW_V1.1.0/Libraries/STM32F4xx_StdPeriph_Driver/src/stm32f4xx_usart.o
USART_ReceiverWakeUpCmd                           ../../../../1_Processor/STM32F4/STM32F4-Discovery_FW_V1.1.0/Libraries/STM32F4xx_StdPeriph_Driver/src/stm32f4xx_usart.o
USART_SendBreak                                   ../../../../1_Processor/STM32F4/STM32F4-Discovery_FW_V1.1.0/Libraries/STM32F4xx_StdPeriph_Driver/src/stm32f4xx_usart.o
USART_SendData                                    ../../../../1_Processor/STM32F4/STM32F4-Discovery_FW_V1.1.0/Libraries/STM32F4xx_StdPeriph_Driver/src/stm32f4xx_usart.o
                                                  ../../../../1_Processor/BoardAbstract/control_unit_v1.o
                                                  ../../../../1_Processor/STM32F4/BSPLIB/usart.o
USART_SetAddress                                  ../../../../1_Processor/STM32F4/STM32F4-Discovery_FW_V1.1.0/Libraries/STM32F4xx_StdPeriph_Driver/src/stm32f4xx_usart.o
USART_SetGuardTime                                ../../../../1_Processor/STM32F4/STM32F4-Discovery_FW_V1.1.0/Libraries/STM32F4xx_StdPeriph_Driver/src/stm32f4xx_usart.o
USART_SetPrescaler                                ../../../../1_Processor/STM32F4/STM32F4-Discovery_FW_V1.1.0/Libraries/STM32F4xx_StdPeriph_Driver/src/stm32f4xx_usart.o
USART_SmartCardCmd                                ../../../../1_Processor/STM32F4/STM32F4-Discovery_FW_V1.1.0/Libraries/STM32F4xx_StdPeriph_Driver/src/stm32f4xx_usart.o
USART_SmartCardNACKCmd                            ../../../../1_Processor/STM32F4/STM32F4-Discovery_FW_V1.1.0/Libraries/STM32F4xx_StdPeriph_Driver/src/stm32f4xx_usart.o
USART_StructInit                                  ../../../../1_Processor/STM32F4/STM32F4-Discovery_FW_V1.1.0/Libraries/STM32F4xx_StdPeriph_Driver/src/stm32f4xx_usart.o
USART_WakeUpConfig                                ../../../../1_Processor/STM32F4/STM32F4-Discovery_FW_V1.1.0/Libraries/STM32F4xx_StdPeriph_Driver/src/stm32f4xx_usart.o
UsageFault_Handler                                ../../../../1_Processor/STM32F4/STM32F4-Discovery_FW_V1.1.0/Libraries/CMSIS/ST/STM32F4xx/Source/Templates/gcc_ride7/startup_stm32f4xx.o
WWDG_CNT                                          ../../../../1_Processor/STM32F4/BSPLIB/wdg_wkup.o
WWDG_ClearFlag                                    ../../../../1_Processor/STM32F4/STM32F4-Discovery_FW_V1.1.0/Libraries/STM32F4xx_StdPeriph_Driver/src/stm32f4xx_wwdg.o
                                                  ../../../../1_Processor/STM32F4/BSPLIB/wdg_wkup.o
WWDG_DeInit                                       ../../../../1_Processor/STM32F4/STM32F4-Discovery_FW_V1.1.0/Libraries/STM32F4xx_StdPeriph_Driver/src/stm32f4xx_wwdg.o
WWDG_Enable                                       ../../../../1_Processor/STM32F4/STM32F4-Discovery_FW_V1.1.0/Libraries/STM32F4xx_StdPeriph_Driver/src/stm32f4xx_wwdg.o
                                                  ../../../../1_Processor/STM32F4/BSPLIB/wdg_wkup.o
WWDG_EnableIT                                     ../../../../1_Processor/STM32F4/STM32F4-Discovery_FW_V1.1.0/Libraries/STM32F4xx_StdPeriph_Driver/src/stm32f4xx_wwdg.o
                                                  ../../../../1_Processor/STM32F4/BSPLIB/wdg_wkup.o
WWDG_GetFlagStatus                                ../../../../1_Processor/STM32F4/STM32F4-Discovery_FW_V1.1.0/Libraries/STM32F4xx_StdPeriph_Driver/src/stm32f4xx_wwdg.o
WWDG_IRQHandler                                   ../../../../1_Processor/STM32F4/STM32F4-Discovery_FW_V1.1.0/Libraries/CMSIS/ST/STM32F4xx/Source/Templates/gcc_ride7/startup_stm32f4xx.o
WWDG_SetCounter                                   ../../../../1_Processor/STM32F4/STM32F4-Discovery_FW_V1.1.0/Libraries/STM32F4xx_StdPeriph_Driver/src/stm32f4xx_wwdg.o
                                                  ../../../../1_Processor/STM32F4/BSPLIB/wdg_wkup.o
WWDG_SetPrescaler                                 ../../../../1_Processor/STM32F4/STM32F4-Discovery_FW_V1.1.0/Libraries/STM32F4xx_StdPeriph_Driver/src/stm32f4xx_wwdg.o
                                                  ../../../../1_Processor/STM32F4/BSPLIB/wdg_wkup.o
WWDG_SetWindowValue                               ../../../../1_Processor/STM32F4/STM32F4-Discovery_FW_V1.1.0/Libraries/STM32F4xx_StdPeriph_Driver/src/stm32f4xx_wwdg.o
                                                  ../../../../1_Processor/STM32F4/BSPLIB/wdg_wkup.o
_Balloc                                           /home/kedou/Project/OpenRE/Tools/gcc-arm-none-eabi-5_4-2016q2/bin/../lib/gcc/arm-none-eabi/5.4.1/../../../../arm-none-eabi/lib/armv7e-m/fpu/libg.a(lib_a-mprec.o)
                                                  /home/kedou/Project/OpenRE/Tools/gcc-arm-none-eabi-5_4-2016q2/bin/../lib/gcc/arm-none-eabi/5.4.1/../../../../arm-none-eabi/lib/armv7e-m/fpu/libg.a(lib_a-dtoa.o)
_Bfree                                            /home/kedou/Project/OpenRE/Tools/gcc-arm-none-eabi-5_4-2016q2/bin/../lib/gcc/arm-none-eabi/5.4.1/../../../../arm-none-eabi/lib/armv7e-m/fpu/libg.a(lib_a-mprec.o)
                                                  /home/kedou/Project/OpenRE/Tools/gcc-arm-none-eabi-5_4-2016q2/bin/../lib/gcc/arm-none-eabi/5.4.1/../../../../arm-none-eabi/lib/armv7e-m/fpu/libg.a(lib_a-dtoa.o)
_PathLocale                                       /home/kedou/Project/OpenRE/Tools/gcc-arm-none-eabi-5_4-2016q2/bin/../lib/gcc/arm-none-eabi/5.4.1/../../../../arm-none-eabi/lib/armv7e-m/fpu/libg.a(lib_a-locale.o)
__adddf3                                          /home/kedou/Project/OpenRE/Tools/gcc-arm-none-eabi-5_4-2016q2/bin/../lib/gcc/arm-none-eabi/5.4.1/armv7e-m/fpu/libgcc.a(_arm_addsubdf3.o)
__aeabi_cdcmpeq                                   /home/kedou/Project/OpenRE/Tools/gcc-arm-none-eabi-5_4-2016q2/bin/../lib/gcc/arm-none-eabi/5.4.1/armv7e-m/fpu/libgcc.a(_arm_cmpdf2.o)
__aeabi_cdcmple                                   /home/kedou/Project/OpenRE/Tools/gcc-arm-none-eabi-5_4-2016q2/bin/../lib/gcc/arm-none-eabi/5.4.1/armv7e-m/fpu/libgcc.a(_arm_cmpdf2.o)
__aeabi_cdrcmple                                  /home/kedou/Project/OpenRE/Tools/gcc-arm-none-eabi-5_4-2016q2/bin/../lib/gcc/arm-none-eabi/5.4.1/armv7e-m/fpu/libgcc.a(_arm_cmpdf2.o)
__aeabi_d2iz                                      /home/kedou/Project/OpenRE/Tools/gcc-arm-none-eabi-5_4-2016q2/bin/../lib/gcc/arm-none-eabi/5.4.1/armv7e-m/fpu/libgcc.a(_arm_fixdfsi.o)
                                                  /home/kedou/Project/OpenRE/Tools/gcc-arm-none-eabi-5_4-2016q2/bin/../lib/gcc/arm-none-eabi/5.4.1/../../../../arm-none-eabi/lib/armv7e-m/fpu/libg.a(lib_a-dtoa.o)
__aeabi_dadd                                      /home/kedou/Project/OpenRE/Tools/gcc-arm-none-eabi-5_4-2016q2/bin/../lib/gcc/arm-none-eabi/5.4.1/armv7e-m/fpu/libgcc.a(_arm_addsubdf3.o)
                                                  /home/kedou/Project/OpenRE/Tools/gcc-arm-none-eabi-5_4-2016q2/bin/../lib/gcc/arm-none-eabi/5.4.1/../../../../arm-none-eabi/lib/armv7e-m/fpu/libg.a(lib_a-dtoa.o)
__aeabi_dcmpeq                                    /home/kedou/Project/OpenRE/Tools/gcc-arm-none-eabi-5_4-2016q2/bin/../lib/gcc/arm-none-eabi/5.4.1/armv7e-m/fpu/libgcc.a(_arm_cmpdf2.o)
                                                  /home/kedou/Project/OpenRE/Tools/gcc-arm-none-eabi-5_4-2016q2/bin/../lib/gcc/arm-none-eabi/5.4.1/../../../../arm-none-eabi/lib/armv7e-m/fpu/libg.a(lib_a-dtoa.o)
                                                  /home/kedou/Project/OpenRE/Tools/gcc-arm-none-eabi-5_4-2016q2/bin/../lib/gcc/arm-none-eabi/5.4.1/../../../../arm-none-eabi/lib/armv7e-m/fpu/libg.a(lib_a-vfprintf.o)
__aeabi_dcmpge                                    /home/kedou/Project/OpenRE/Tools/gcc-arm-none-eabi-5_4-2016q2/bin/../lib/gcc/arm-none-eabi/5.4.1/armv7e-m/fpu/libgcc.a(_arm_cmpdf2.o)
                                                  /home/kedou/Project/OpenRE/Tools/gcc-arm-none-eabi-5_4-2016q2/bin/../lib/gcc/arm-none-eabi/5.4.1/../../../../arm-none-eabi/lib/armv7e-m/fpu/libg.a(lib_a-dtoa.o)
__aeabi_dcmpgt                                    /home/kedou/Project/OpenRE/Tools/gcc-arm-none-eabi-5_4-2016q2/bin/../lib/gcc/arm-none-eabi/5.4.1/armv7e-m/fpu/libgcc.a(_arm_cmpdf2.o)
                                                  /home/kedou/Project/OpenRE/Tools/gcc-arm-none-eabi-5_4-2016q2/bin/../lib/gcc/arm-none-eabi/5.4.1/../../../../arm-none-eabi/lib/armv7e-m/fpu/libg.a(lib_a-dtoa.o)
__aeabi_dcmple                                    /home/kedou/Project/OpenRE/Tools/gcc-arm-none-eabi-5_4-2016q2/bin/../lib/gcc/arm-none-eabi/5.4.1/armv7e-m/fpu/libgcc.a(_arm_cmpdf2.o)
                                                  /home/kedou/Project/OpenRE/Tools/gcc-arm-none-eabi-5_4-2016q2/bin/../lib/gcc/arm-none-eabi/5.4.1/../../../../arm-none-eabi/lib/armv7e-m/fpu/libg.a(lib_a-vfprintf.o)
__aeabi_dcmplt                                    /home/kedou/Project/OpenRE/Tools/gcc-arm-none-eabi-5_4-2016q2/bin/../lib/gcc/arm-none-eabi/5.4.1/armv7e-m/fpu/libgcc.a(_arm_cmpdf2.o)
                                                  /home/kedou/Project/OpenRE/Tools/gcc-arm-none-eabi-5_4-2016q2/bin/../lib/gcc/arm-none-eabi/5.4.1/../../../../arm-none-eabi/lib/armv7e-m/fpu/libg.a(lib_a-dtoa.o)
                                                  /home/kedou/Project/OpenRE/Tools/gcc-arm-none-eabi-5_4-2016q2/bin/../lib/gcc/arm-none-eabi/5.4.1/../../../../arm-none-eabi/lib/armv7e-m/fpu/libg.a(lib_a-vfprintf.o)
__aeabi_dcmpun                                    /home/kedou/Project/OpenRE/Tools/gcc-arm-none-eabi-5_4-2016q2/bin/../lib/gcc/arm-none-eabi/5.4.1/armv7e-m/fpu/libgcc.a(_arm_unorddf2.o)
                                                  /home/kedou/Project/OpenRE/Tools/gcc-arm-none-eabi-5_4-2016q2/bin/../lib/gcc/arm-none-eabi/5.4.1/../../../../arm-none-eabi/lib/armv7e-m/fpu/libg.a(lib_a-vfprintf.o)
__aeabi_ddiv                                      /home/kedou/Project/OpenRE/Tools/gcc-arm-none-eabi-5_4-2016q2/bin/../lib/gcc/arm-none-eabi/5.4.1/armv7e-m/fpu/libgcc.a(_arm_muldivdf3.o)
                                                  /home/kedou/Project/OpenRE/Tools/gcc-arm-none-eabi-5_4-2016q2/bin/../lib/gcc/arm-none-eabi/5.4.1/../../../../arm-none-eabi/lib/armv7e-m/fpu/libg.a(lib_a-mprec.o)
                                                  /home/kedou/Project/OpenRE/Tools/gcc-arm-none-eabi-5_4-2016q2/bin/../lib/gcc/arm-none-eabi/5.4.1/../../../../arm-none-eabi/lib/armv7e-m/fpu/libg.a(lib_a-dtoa.o)
__aeabi_dmul                                      /home/kedou/Project/OpenRE/Tools/gcc-arm-none-eabi-5_4-2016q2/bin/../lib/gcc/arm-none-eabi/5.4.1/armv7e-m/fpu/libgcc.a(_arm_muldivdf3.o)
                                                  /home/kedou/Project/OpenRE/Tools/gcc-arm-none-eabi-5_4-2016q2/bin/../lib/gcc/arm-none-eabi/5.4.1/../../../../arm-none-eabi/lib/armv7e-m/fpu/libg.a(lib_a-mprec.o)
                                                  /home/kedou/Project/OpenRE/Tools/gcc-arm-none-eabi-5_4-2016q2/bin/../lib/gcc/arm-none-eabi/5.4.1/../../../../arm-none-eabi/lib/armv7e-m/fpu/libg.a(lib_a-dtoa.o)
__aeabi_drsub                                     /home/kedou/Project/OpenRE/Tools/gcc-arm-none-eabi-5_4-2016q2/bin/../lib/gcc/arm-none-eabi/5.4.1/armv7e-m/fpu/libgcc.a(_arm_addsubdf3.o)
__aeabi_dsub                                      /home/kedou/Project/OpenRE/Tools/gcc-arm-none-eabi-5_4-2016q2/bin/../lib/gcc/arm-none-eabi/5.4.1/armv7e-m/fpu/libgcc.a(_arm_addsubdf3.o)
                                                  /home/kedou/Project/OpenRE/Tools/gcc-arm-none-eabi-5_4-2016q2/bin/../lib/gcc/arm-none-eabi/5.4.1/../../../../arm-none-eabi/lib/armv7e-m/fpu/libg.a(lib_a-dtoa.o)
__aeabi_f2d                                       /home/kedou/Project/OpenRE/Tools/gcc-arm-none-eabi-5_4-2016q2/bin/../lib/gcc/arm-none-eabi/5.4.1/armv7e-m/fpu/libgcc.a(_arm_addsubdf3.o)
__aeabi_i2d                                       /home/kedou/Project/OpenRE/Tools/gcc-arm-none-eabi-5_4-2016q2/bin/../lib/gcc/arm-none-eabi/5.4.1/armv7e-m/fpu/libgcc.a(_arm_addsubdf3.o)
                                                  /home/kedou/Project/OpenRE/Tools/gcc-arm-none-eabi-5_4-2016q2/bin/../lib/gcc/arm-none-eabi/5.4.1/../../../../arm-none-eabi/lib/armv7e-m/fpu/libg.a(lib_a-dtoa.o)
__aeabi_idiv0                                     /home/kedou/Project/OpenRE/Tools/gcc-arm-none-eabi-5_4-2016q2/bin/../lib/gcc/arm-none-eabi/5.4.1/armv7e-m/fpu/libgcc.a(_dvmd_tls.o)
__aeabi_l2d                                       /home/kedou/Project/OpenRE/Tools/gcc-arm-none-eabi-5_4-2016q2/bin/../lib/gcc/arm-none-eabi/5.4.1/armv7e-m/fpu/libgcc.a(_arm_addsubdf3.o)
__aeabi_ldiv0                                     /home/kedou/Project/OpenRE/Tools/gcc-arm-none-eabi-5_4-2016q2/bin/../lib/gcc/arm-none-eabi/5.4.1/armv7e-m/fpu/libgcc.a(_dvmd_tls.o)
                                                  /home/kedou/Project/OpenRE/Tools/gcc-arm-none-eabi-5_4-2016q2/bin/../lib/gcc/arm-none-eabi/5.4.1/armv7e-m/fpu/libgcc.a(_aeabi_uldivmod.o)
__aeabi_ui2d                                      /home/kedou/Project/OpenRE/Tools/gcc-arm-none-eabi-5_4-2016q2/bin/../lib/gcc/arm-none-eabi/5.4.1/armv7e-m/fpu/libgcc.a(_arm_addsubdf3.o)
                                                  /home/kedou/Project/OpenRE/Tools/gcc-arm-none-eabi-5_4-2016q2/bin/../lib/gcc/arm-none-eabi/5.4.1/../../../../arm-none-eabi/lib/armv7e-m/fpu/libg.a(lib_a-dtoa.o)
__aeabi_ul2d                                      /home/kedou/Project/OpenRE/Tools/gcc-arm-none-eabi-5_4-2016q2/bin/../lib/gcc/arm-none-eabi/5.4.1/armv7e-m/fpu/libgcc.a(_arm_addsubdf3.o)
__aeabi_uldivmod                                  /home/kedou/Project/OpenRE/Tools/gcc-arm-none-eabi-5_4-2016q2/bin/../lib/gcc/arm-none-eabi/5.4.1/armv7e-m/fpu/libgcc.a(_aeabi_uldivmod.o)
                                                  /home/kedou/Project/OpenRE/Tools/gcc-arm-none-eabi-5_4-2016q2/bin/../lib/gcc/arm-none-eabi/5.4.1/../../../../arm-none-eabi/lib/armv7e-m/fpu/libg.a(lib_a-vfiprintf.o)
                                                  /home/kedou/Project/OpenRE/Tools/gcc-arm-none-eabi-5_4-2016q2/bin/../lib/gcc/arm-none-eabi/5.4.1/../../../../arm-none-eabi/lib/armv7e-m/fpu/libg.a(lib_a-vfprintf.o)
__any_on                                          /home/kedou/Project/OpenRE/Tools/gcc-arm-none-eabi-5_4-2016q2/bin/../lib/gcc/arm-none-eabi/5.4.1/../../../../arm-none-eabi/lib/armv7e-m/fpu/libg.a(lib_a-mprec.o)
__ascii_wctomb                                    /home/kedou/Project/OpenRE/Tools/gcc-arm-none-eabi-5_4-2016q2/bin/../lib/gcc/arm-none-eabi/5.4.1/../../../../arm-none-eabi/lib/armv7e-m/fpu/libg.a(lib_a-wctomb_r.o)
__b2d                                             /home/kedou/Project/OpenRE/Tools/gcc-arm-none-eabi-5_4-2016q2/bin/../lib/gcc/arm-none-eabi/5.4.1/../../../../arm-none-eabi/lib/armv7e-m/fpu/libg.a(lib_a-mprec.o)
__cmpdf2                                          /home/kedou/Project/OpenRE/Tools/gcc-arm-none-eabi-5_4-2016q2/bin/../lib/gcc/arm-none-eabi/5.4.1/armv7e-m/fpu/libgcc.a(_arm_cmpdf2.o)
__copybits                                        /home/kedou/Project/OpenRE/Tools/gcc-arm-none-eabi-5_4-2016q2/bin/../lib/gcc/arm-none-eabi/5.4.1/../../../../arm-none-eabi/lib/armv7e-m/fpu/libg.a(lib_a-mprec.o)
__d2b                                             /home/kedou/Project/OpenRE/Tools/gcc-arm-none-eabi-5_4-2016q2/bin/../lib/gcc/arm-none-eabi/5.4.1/../../../../arm-none-eabi/lib/armv7e-m/fpu/libg.a(lib_a-mprec.o)
                                                  /home/kedou/Project/OpenRE/Tools/gcc-arm-none-eabi-5_4-2016q2/bin/../lib/gcc/arm-none-eabi/5.4.1/../../../../arm-none-eabi/lib/armv7e-m/fpu/libg.a(lib_a-dtoa.o)
__divdf3                                          /home/kedou/Project/OpenRE/Tools/gcc-arm-none-eabi-5_4-2016q2/bin/../lib/gcc/arm-none-eabi/5.4.1/armv7e-m/fpu/libgcc.a(_arm_muldivdf3.o)
__env                                             ../../../../1_Processor/STM32F4/BSPLIB/usart.o
__eqdf2                                           /home/kedou/Project/OpenRE/Tools/gcc-arm-none-eabi-5_4-2016q2/bin/../lib/gcc/arm-none-eabi/5.4.1/armv7e-m/fpu/libgcc.a(_arm_cmpdf2.o)
__extendsfdf2                                     /home/kedou/Project/OpenRE/Tools/gcc-arm-none-eabi-5_4-2016q2/bin/../lib/gcc/arm-none-eabi/5.4.1/armv7e-m/fpu/libgcc.a(_arm_addsubdf3.o)
__fixdfsi                                         /home/kedou/Project/OpenRE/Tools/gcc-arm-none-eabi-5_4-2016q2/bin/../lib/gcc/arm-none-eabi/5.4.1/armv7e-m/fpu/libgcc.a(_arm_fixdfsi.o)
__floatdidf                                       /home/kedou/Project/OpenRE/Tools/gcc-arm-none-eabi-5_4-2016q2/bin/../lib/gcc/arm-none-eabi/5.4.1/armv7e-m/fpu/libgcc.a(_arm_addsubdf3.o)
__floatsidf                                       /home/kedou/Project/OpenRE/Tools/gcc-arm-none-eabi-5_4-2016q2/bin/../lib/gcc/arm-none-eabi/5.4.1/armv7e-m/fpu/libgcc.a(_arm_addsubdf3.o)
__floatundidf                                     /home/kedou/Project/OpenRE/Tools/gcc-arm-none-eabi-5_4-2016q2/bin/../lib/gcc/arm-none-eabi/5.4.1/armv7e-m/fpu/libgcc.a(_arm_addsubdf3.o)
__floatunsidf                                     /home/kedou/Project/OpenRE/Tools/gcc-arm-none-eabi-5_4-2016q2/bin/../lib/gcc/arm-none-eabi/5.4.1/armv7e-m/fpu/libgcc.a(_arm_addsubdf3.o)
__fp_lock_all                                     /home/kedou/Project/OpenRE/Tools/gcc-arm-none-eabi-5_4-2016q2/bin/../lib/gcc/arm-none-eabi/5.4.1/../../../../arm-none-eabi/lib/armv7e-m/fpu/libg.a(lib_a-findfp.o)
__fp_unlock_all                                   /home/kedou/Project/OpenRE/Tools/gcc-arm-none-eabi-5_4-2016q2/bin/../lib/gcc/arm-none-eabi/5.4.1/../../../../arm-none-eabi/lib/armv7e-m/fpu/libg.a(lib_a-findfp.o)
__fputwc                                          /home/kedou/Project/OpenRE/Tools/gcc-arm-none-eabi-5_4-2016q2/bin/../lib/gcc/arm-none-eabi/5.4.1/../../../../arm-none-eabi/lib/armv7e-m/fpu/libg.a(lib_a-fputwc.o)
__gedf2                                           /home/kedou/Project/OpenRE/Tools/gcc-arm-none-eabi-5_4-2016q2/bin/../lib/gcc/arm-none-eabi/5.4.1/armv7e-m/fpu/libgcc.a(_arm_cmpdf2.o)
__gtdf2                                           /home/kedou/Project/OpenRE/Tools/gcc-arm-none-eabi-5_4-2016q2/bin/../lib/gcc/arm-none-eabi/5.4.1/armv7e-m/fpu/libgcc.a(_arm_cmpdf2.o)
__hi0bits                                         /home/kedou/Project/OpenRE/Tools/gcc-arm-none-eabi-5_4-2016q2/bin/../lib/gcc/arm-none-eabi/5.4.1/../../../../arm-none-eabi/lib/armv7e-m/fpu/libg.a(lib_a-mprec.o)
                                                  /home/kedou/Project/OpenRE/Tools/gcc-arm-none-eabi-5_4-2016q2/bin/../lib/gcc/arm-none-eabi/5.4.1/../../../../arm-none-eabi/lib/armv7e-m/fpu/libg.a(lib_a-dtoa.o)
__i2b                                             /home/kedou/Project/OpenRE/Tools/gcc-arm-none-eabi-5_4-2016q2/bin/../lib/gcc/arm-none-eabi/5.4.1/../../../../arm-none-eabi/lib/armv7e-m/fpu/libg.a(lib_a-mprec.o)
                                                  /home/kedou/Project/OpenRE/Tools/gcc-arm-none-eabi-5_4-2016q2/bin/../lib/gcc/arm-none-eabi/5.4.1/../../../../arm-none-eabi/lib/armv7e-m/fpu/libg.a(lib_a-dtoa.o)
__ledf2                                           /home/kedou/Project/OpenRE/Tools/gcc-arm-none-eabi-5_4-2016q2/bin/../lib/gcc/arm-none-eabi/5.4.1/armv7e-m/fpu/libgcc.a(_arm_cmpdf2.o)
__lo0bits                                         /home/kedou/Project/OpenRE/Tools/gcc-arm-none-eabi-5_4-2016q2/bin/../lib/gcc/arm-none-eabi/5.4.1/../../../../arm-none-eabi/lib/armv7e-m/fpu/libg.a(lib_a-mprec.o)
__locale_charset                                  /home/kedou/Project/OpenRE/Tools/gcc-arm-none-eabi-5_4-2016q2/bin/../lib/gcc/arm-none-eabi/5.4.1/../../../../arm-none-eabi/lib/armv7e-m/fpu/libg.a(lib_a-locale.o)
                                                  /home/kedou/Project/OpenRE/Tools/gcc-arm-none-eabi-5_4-2016q2/bin/../lib/gcc/arm-none-eabi/5.4.1/../../../../arm-none-eabi/lib/armv7e-m/fpu/libg.a(lib_a-wctomb_r.o)
                                                  /home/kedou/Project/OpenRE/Tools/gcc-arm-none-eabi-5_4-2016q2/bin/../lib/gcc/arm-none-eabi/5.4.1/../../../../arm-none-eabi/lib/armv7e-m/fpu/libg.a(lib_a-wcrtomb.o)
__locale_cjk_lang                                 /home/kedou/Project/OpenRE/Tools/gcc-arm-none-eabi-5_4-2016q2/bin/../lib/gcc/arm-none-eabi/5.4.1/../../../../arm-none-eabi/lib/armv7e-m/fpu/libg.a(lib_a-locale.o)
__locale_mb_cur_max                               /home/kedou/Project/OpenRE/Tools/gcc-arm-none-eabi-5_4-2016q2/bin/../lib/gcc/arm-none-eabi/5.4.1/../../../../arm-none-eabi/lib/armv7e-m/fpu/libg.a(lib_a-locale.o)
                                                  /home/kedou/Project/OpenRE/Tools/gcc-arm-none-eabi-5_4-2016q2/bin/../lib/gcc/arm-none-eabi/5.4.1/../../../../arm-none-eabi/lib/armv7e-m/fpu/libg.a(lib_a-fputwc.o)
__locale_msgcharset                               /home/kedou/Project/OpenRE/Tools/gcc-arm-none-eabi-5_4-2016q2/bin/../lib/gcc/arm-none-eabi/5.4.1/../../../../arm-none-eabi/lib/armv7e-m/fpu/libg.a(lib_a-locale.o)
__lshift                                          /home/kedou/Project/OpenRE/Tools/gcc-arm-none-eabi-5_4-2016q2/bin/../lib/gcc/arm-none-eabi/5.4.1/../../../../arm-none-eabi/lib/armv7e-m/fpu/libg.a(lib_a-mprec.o)
                                                  /home/kedou/Project/OpenRE/Tools/gcc-arm-none-eabi-5_4-2016q2/bin/../lib/gcc/arm-none-eabi/5.4.1/../../../../arm-none-eabi/lib/armv7e-m/fpu/libg.a(lib_a-dtoa.o)
__ltdf2                                           /home/kedou/Project/OpenRE/Tools/gcc-arm-none-eabi-5_4-2016q2/bin/../lib/gcc/arm-none-eabi/5.4.1/armv7e-m/fpu/libgcc.a(_arm_cmpdf2.o)
__malloc_av_                                      /home/kedou/Project/OpenRE/Tools/gcc-arm-none-eabi-5_4-2016q2/bin/../lib/gcc/arm-none-eabi/5.4.1/../../../../arm-none-eabi/lib/armv7e-m/fpu/libg.a(lib_a-mallocr.o)
                                                  /home/kedou/Project/OpenRE/Tools/gcc-arm-none-eabi-5_4-2016q2/bin/../lib/gcc/arm-none-eabi/5.4.1/../../../../arm-none-eabi/lib/armv7e-m/fpu/libg.a(lib_a-reallocr.o)
                                                  /home/kedou/Project/OpenRE/Tools/gcc-arm-none-eabi-5_4-2016q2/bin/../lib/gcc/arm-none-eabi/5.4.1/../../../../arm-none-eabi/lib/armv7e-m/fpu/libg.a(lib_a-freer.o)
__malloc_current_mallinfo                         /home/kedou/Project/OpenRE/Tools/gcc-arm-none-eabi-5_4-2016q2/bin/../lib/gcc/arm-none-eabi/5.4.1/../../../../arm-none-eabi/lib/armv7e-m/fpu/libg.a(lib_a-mallocr.o)
                                                  /home/kedou/Project/OpenRE/Tools/gcc-arm-none-eabi-5_4-2016q2/bin/../lib/gcc/arm-none-eabi/5.4.1/../../../../arm-none-eabi/lib/armv7e-m/fpu/libg.a(lib_a-freer.o)
__malloc_lock                                     /home/kedou/Project/OpenRE/Tools/gcc-arm-none-eabi-5_4-2016q2/bin/../lib/gcc/arm-none-eabi/5.4.1/../../../../arm-none-eabi/lib/armv7e-m/fpu/libg.a(lib_a-mlock.o)
                                                  /home/kedou/Project/OpenRE/Tools/gcc-arm-none-eabi-5_4-2016q2/bin/../lib/gcc/arm-none-eabi/5.4.1/../../../../arm-none-eabi/lib/armv7e-m/fpu/libg.a(lib_a-reallocr.o)
                                                  /home/kedou/Project/OpenRE/Tools/gcc-arm-none-eabi-5_4-2016q2/bin/../lib/gcc/arm-none-eabi/5.4.1/../../../../arm-none-eabi/lib/armv7e-m/fpu/libg.a(lib_a-mallocr.o)
                                                  /home/kedou/Project/OpenRE/Tools/gcc-arm-none-eabi-5_4-2016q2/bin/../lib/gcc/arm-none-eabi/5.4.1/../../../../arm-none-eabi/lib/armv7e-m/fpu/libg.a(lib_a-freer.o)
__malloc_max_sbrked_mem                           /home/kedou/Project/OpenRE/Tools/gcc-arm-none-eabi-5_4-2016q2/bin/../lib/gcc/arm-none-eabi/5.4.1/../../../../arm-none-eabi/lib/armv7e-m/fpu/libg.a(lib_a-mallocr.o)
__malloc_max_total_mem                            /home/kedou/Project/OpenRE/Tools/gcc-arm-none-eabi-5_4-2016q2/bin/../lib/gcc/arm-none-eabi/5.4.1/../../../../arm-none-eabi/lib/armv7e-m/fpu/libg.a(lib_a-mallocr.o)
__malloc_sbrk_base                                /home/kedou/Project/OpenRE/Tools/gcc-arm-none-eabi-5_4-2016q2/bin/../lib/gcc/arm-none-eabi/5.4.1/../../../../arm-none-eabi/lib/armv7e-m/fpu/libg.a(lib_a-mallocr.o)
                                                  /home/kedou/Project/OpenRE/Tools/gcc-arm-none-eabi-5_4-2016q2/bin/../lib/gcc/arm-none-eabi/5.4.1/../../../../arm-none-eabi/lib/armv7e-m/fpu/libg.a(lib_a-freer.o)
__malloc_top_pad                                  /home/kedou/Project/OpenRE/Tools/gcc-arm-none-eabi-5_4-2016q2/bin/../lib/gcc/arm-none-eabi/5.4.1/../../../../arm-none-eabi/lib/armv7e-m/fpu/libg.a(lib_a-mallocr.o)
                                                  /home/kedou/Project/OpenRE/Tools/gcc-arm-none-eabi-5_4-2016q2/bin/../lib/gcc/arm-none-eabi/5.4.1/../../../../arm-none-eabi/lib/armv7e-m/fpu/libg.a(lib_a-freer.o)
__malloc_trim_threshold                           /home/kedou/Project/OpenRE/Tools/gcc-arm-none-eabi-5_4-2016q2/bin/../lib/gcc/arm-none-eabi/5.4.1/../../../../arm-none-eabi/lib/armv7e-m/fpu/libg.a(lib_a-mallocr.o)
                                                  /home/kedou/Project/OpenRE/Tools/gcc-arm-none-eabi-5_4-2016q2/bin/../lib/gcc/arm-none-eabi/5.4.1/../../../../arm-none-eabi/lib/armv7e-m/fpu/libg.a(lib_a-freer.o)
__malloc_unlock                                   /home/kedou/Project/OpenRE/Tools/gcc-arm-none-eabi-5_4-2016q2/bin/../lib/gcc/arm-none-eabi/5.4.1/../../../../arm-none-eabi/lib/armv7e-m/fpu/libg.a(lib_a-mlock.o)
                                                  /home/kedou/Project/OpenRE/Tools/gcc-arm-none-eabi-5_4-2016q2/bin/../lib/gcc/arm-none-eabi/5.4.1/../../../../arm-none-eabi/lib/armv7e-m/fpu/libg.a(lib_a-reallocr.o)
                                                  /home/kedou/Project/OpenRE/Tools/gcc-arm-none-eabi-5_4-2016q2/bin/../lib/gcc/arm-none-eabi/5.4.1/../../../../arm-none-eabi/lib/armv7e-m/fpu/libg.a(lib_a-mallocr.o)
                                                  /home/kedou/Project/OpenRE/Tools/gcc-arm-none-eabi-5_4-2016q2/bin/../lib/gcc/arm-none-eabi/5.4.1/../../../../arm-none-eabi/lib/armv7e-m/fpu/libg.a(lib_a-freer.o)
__mb_cur_max                                      /home/kedou/Project/OpenRE/Tools/gcc-arm-none-eabi-5_4-2016q2/bin/../lib/gcc/arm-none-eabi/5.4.1/../../../../arm-none-eabi/lib/armv7e-m/fpu/libg.a(lib_a-locale.o)
__mcmp                                            /home/kedou/Project/OpenRE/Tools/gcc-arm-none-eabi-5_4-2016q2/bin/../lib/gcc/arm-none-eabi/5.4.1/../../../../arm-none-eabi/lib/armv7e-m/fpu/libg.a(lib_a-mprec.o)
                                                  /home/kedou/Project/OpenRE/Tools/gcc-arm-none-eabi-5_4-2016q2/bin/../lib/gcc/arm-none-eabi/5.4.1/../../../../arm-none-eabi/lib/armv7e-m/fpu/libg.a(lib_a-dtoa.o)
__mdiff                                           /home/kedou/Project/OpenRE/Tools/gcc-arm-none-eabi-5_4-2016q2/bin/../lib/gcc/arm-none-eabi/5.4.1/../../../../arm-none-eabi/lib/armv7e-m/fpu/libg.a(lib_a-mprec.o)
                                                  /home/kedou/Project/OpenRE/Tools/gcc-arm-none-eabi-5_4-2016q2/bin/../lib/gcc/arm-none-eabi/5.4.1/../../../../arm-none-eabi/lib/armv7e-m/fpu/libg.a(lib_a-dtoa.o)
__mlocale_changed                                 /home/kedou/Project/OpenRE/Tools/gcc-arm-none-eabi-5_4-2016q2/bin/../lib/gcc/arm-none-eabi/5.4.1/../../../../arm-none-eabi/lib/armv7e-m/fpu/libg.a(lib_a-locale.o)
__mprec_bigtens                                   /home/kedou/Project/OpenRE/Tools/gcc-arm-none-eabi-5_4-2016q2/bin/../lib/gcc/arm-none-eabi/5.4.1/../../../../arm-none-eabi/lib/armv7e-m/fpu/libg.a(lib_a-mprec.o)
                                                  /home/kedou/Project/OpenRE/Tools/gcc-arm-none-eabi-5_4-2016q2/bin/../lib/gcc/arm-none-eabi/5.4.1/../../../../arm-none-eabi/lib/armv7e-m/fpu/libg.a(lib_a-dtoa.o)
__mprec_tens                                      /home/kedou/Project/OpenRE/Tools/gcc-arm-none-eabi-5_4-2016q2/bin/../lib/gcc/arm-none-eabi/5.4.1/../../../../arm-none-eabi/lib/armv7e-m/fpu/libg.a(lib_a-mprec.o)
                                                  /home/kedou/Project/OpenRE/Tools/gcc-arm-none-eabi-5_4-2016q2/bin/../lib/gcc/arm-none-eabi/5.4.1/../../../../arm-none-eabi/lib/armv7e-m/fpu/libg.a(lib_a-dtoa.o)
__mprec_tinytens                                  /home/kedou/Project/OpenRE/Tools/gcc-arm-none-eabi-5_4-2016q2/bin/../lib/gcc/arm-none-eabi/5.4.1/../../../../arm-none-eabi/lib/armv7e-m/fpu/libg.a(lib_a-mprec.o)
__muldf3                                          /home/kedou/Project/OpenRE/Tools/gcc-arm-none-eabi-5_4-2016q2/bin/../lib/gcc/arm-none-eabi/5.4.1/armv7e-m/fpu/libgcc.a(_arm_muldivdf3.o)
__multadd                                         /home/kedou/Project/OpenRE/Tools/gcc-arm-none-eabi-5_4-2016q2/bin/../lib/gcc/arm-none-eabi/5.4.1/../../../../arm-none-eabi/lib/armv7e-m/fpu/libg.a(lib_a-mprec.o)
                                                  /home/kedou/Project/OpenRE/Tools/gcc-arm-none-eabi-5_4-2016q2/bin/../lib/gcc/arm-none-eabi/5.4.1/../../../../arm-none-eabi/lib/armv7e-m/fpu/libg.a(lib_a-dtoa.o)
__multiply                                        /home/kedou/Project/OpenRE/Tools/gcc-arm-none-eabi-5_4-2016q2/bin/../lib/gcc/arm-none-eabi/5.4.1/../../../../arm-none-eabi/lib/armv7e-m/fpu/libg.a(lib_a-mprec.o)
                                                  /home/kedou/Project/OpenRE/Tools/gcc-arm-none-eabi-5_4-2016q2/bin/../lib/gcc/arm-none-eabi/5.4.1/../../../../arm-none-eabi/lib/armv7e-m/fpu/libg.a(lib_a-dtoa.o)
__nedf2                                           /home/kedou/Project/OpenRE/Tools/gcc-arm-none-eabi-5_4-2016q2/bin/../lib/gcc/arm-none-eabi/5.4.1/armv7e-m/fpu/libgcc.a(_arm_cmpdf2.o)
__nlocale_changed                                 /home/kedou/Project/OpenRE/Tools/gcc-arm-none-eabi-5_4-2016q2/bin/../lib/gcc/arm-none-eabi/5.4.1/../../../../arm-none-eabi/lib/armv7e-m/fpu/libg.a(lib_a-locale.o)
__pow5mult                                        /home/kedou/Project/OpenRE/Tools/gcc-arm-none-eabi-5_4-2016q2/bin/../lib/gcc/arm-none-eabi/5.4.1/../../../../arm-none-eabi/lib/armv7e-m/fpu/libg.a(lib_a-mprec.o)
                                                  /home/kedou/Project/OpenRE/Tools/gcc-arm-none-eabi-5_4-2016q2/bin/../lib/gcc/arm-none-eabi/5.4.1/../../../../arm-none-eabi/lib/armv7e-m/fpu/libg.a(lib_a-dtoa.o)
__ratio                                           /home/kedou/Project/OpenRE/Tools/gcc-arm-none-eabi-5_4-2016q2/bin/../lib/gcc/arm-none-eabi/5.4.1/../../../../arm-none-eabi/lib/armv7e-m/fpu/libg.a(lib_a-mprec.o)
__s2b                                             /home/kedou/Project/OpenRE/Tools/gcc-arm-none-eabi-5_4-2016q2/bin/../lib/gcc/arm-none-eabi/5.4.1/../../../../arm-none-eabi/lib/armv7e-m/fpu/libg.a(lib_a-mprec.o)
__sclose                                          /home/kedou/Project/OpenRE/Tools/gcc-arm-none-eabi-5_4-2016q2/bin/../lib/gcc/arm-none-eabi/5.4.1/../../../../arm-none-eabi/lib/armv7e-m/fpu/libg.a(lib_a-stdio.o)
                                                  /home/kedou/Project/OpenRE/Tools/gcc-arm-none-eabi-5_4-2016q2/bin/../lib/gcc/arm-none-eabi/5.4.1/../../../../arm-none-eabi/lib/armv7e-m/fpu/libg.a(lib_a-findfp.o)
__seofread                                        /home/kedou/Project/OpenRE/Tools/gcc-arm-none-eabi-5_4-2016q2/bin/../lib/gcc/arm-none-eabi/5.4.1/../../../../arm-none-eabi/lib/armv7e-m/fpu/libg.a(lib_a-stdio.o)
__sflush_r                                        /home/kedou/Project/OpenRE/Tools/gcc-arm-none-eabi-5_4-2016q2/bin/../lib/gcc/arm-none-eabi/5.4.1/../../../../arm-none-eabi/lib/armv7e-m/fpu/libg.a(lib_a-fflush.o)
                                                  /home/kedou/Project/OpenRE/Tools/gcc-arm-none-eabi-5_4-2016q2/bin/../lib/gcc/arm-none-eabi/5.4.1/../../../../arm-none-eabi/lib/armv7e-m/fpu/libg.a(lib_a-fclose.o)
__sfmoreglue                                      /home/kedou/Project/OpenRE/Tools/gcc-arm-none-eabi-5_4-2016q2/bin/../lib/gcc/arm-none-eabi/5.4.1/../../../../arm-none-eabi/lib/armv7e-m/fpu/libg.a(lib_a-findfp.o)
__sfp                                             /home/kedou/Project/OpenRE/Tools/gcc-arm-none-eabi-5_4-2016q2/bin/../lib/gcc/arm-none-eabi/5.4.1/../../../../arm-none-eabi/lib/armv7e-m/fpu/libg.a(lib_a-findfp.o)
__sfp_lock_acquire                                /home/kedou/Project/OpenRE/Tools/gcc-arm-none-eabi-5_4-2016q2/bin/../lib/gcc/arm-none-eabi/5.4.1/../../../../arm-none-eabi/lib/armv7e-m/fpu/libg.a(lib_a-findfp.o)
                                                  /home/kedou/Project/OpenRE/Tools/gcc-arm-none-eabi-5_4-2016q2/bin/../lib/gcc/arm-none-eabi/5.4.1/../../../../arm-none-eabi/lib/armv7e-m/fpu/libg.a(lib_a-fclose.o)
__sfp_lock_release                                /home/kedou/Project/OpenRE/Tools/gcc-arm-none-eabi-5_4-2016q2/bin/../lib/gcc/arm-none-eabi/5.4.1/../../../../arm-none-eabi/lib/armv7e-m/fpu/libg.a(lib_a-findfp.o)
                                                  /home/kedou/Project/OpenRE/Tools/gcc-arm-none-eabi-5_4-2016q2/bin/../lib/gcc/arm-none-eabi/5.4.1/../../../../arm-none-eabi/lib/armv7e-m/fpu/libg.a(lib_a-fclose.o)
__sfvwrite_r                                      /home/kedou/Project/OpenRE/Tools/gcc-arm-none-eabi-5_4-2016q2/bin/../lib/gcc/arm-none-eabi/5.4.1/../../../../arm-none-eabi/lib/armv7e-m/fpu/libg.a(lib_a-fvwrite.o)
                                                  /home/kedou/Project/OpenRE/Tools/gcc-arm-none-eabi-5_4-2016q2/bin/../lib/gcc/arm-none-eabi/5.4.1/../../../../arm-none-eabi/lib/armv7e-m/fpu/libg.a(lib_a-vfiprintf.o)
                                                  /home/kedou/Project/OpenRE/Tools/gcc-arm-none-eabi-5_4-2016q2/bin/../lib/gcc/arm-none-eabi/5.4.1/../../../../arm-none-eabi/lib/armv7e-m/fpu/libg.a(lib_a-puts.o)
__sinit                                           /home/kedou/Project/OpenRE/Tools/gcc-arm-none-eabi-5_4-2016q2/bin/../lib/gcc/arm-none-eabi/5.4.1/../../../../arm-none-eabi/lib/armv7e-m/fpu/libg.a(lib_a-findfp.o)
                                                  /home/kedou/Project/OpenRE/Tools/gcc-arm-none-eabi-5_4-2016q2/bin/../lib/gcc/arm-none-eabi/5.4.1/../../../../arm-none-eabi/lib/armv7e-m/fpu/libg.a(lib_a-wbuf.o)
                                                  /home/kedou/Project/OpenRE/Tools/gcc-arm-none-eabi-5_4-2016q2/bin/../lib/gcc/arm-none-eabi/5.4.1/../../../../arm-none-eabi/lib/armv7e-m/fpu/libg.a(lib_a-fputwc.o)
                                                  /home/kedou/Project/OpenRE/Tools/gcc-arm-none-eabi-5_4-2016q2/bin/../lib/gcc/arm-none-eabi/5.4.1/../../../../arm-none-eabi/lib/armv7e-m/fpu/libg.a(lib_a-fclose.o)
                                                  /home/kedou/Project/OpenRE/Tools/gcc-arm-none-eabi-5_4-2016q2/bin/../lib/gcc/arm-none-eabi/5.4.1/../../../../arm-none-eabi/lib/armv7e-m/fpu/libg.a(lib_a-vfiprintf.o)
                                                  /home/kedou/Project/OpenRE/Tools/gcc-arm-none-eabi-5_4-2016q2/bin/../lib/gcc/arm-none-eabi/5.4.1/../../../../arm-none-eabi/lib/armv7e-m/fpu/libg.a(lib_a-fflush.o)
                                                  /home/kedou/Project/OpenRE/Tools/gcc-arm-none-eabi-5_4-2016q2/bin/../lib/gcc/arm-none-eabi/5.4.1/../../../../arm-none-eabi/lib/armv7e-m/fpu/libg.a(lib_a-wsetup.o)
                                                  /home/kedou/Project/OpenRE/Tools/gcc-arm-none-eabi-5_4-2016q2/bin/../lib/gcc/arm-none-eabi/5.4.1/../../../../arm-none-eabi/lib/armv7e-m/fpu/libg.a(lib_a-vfprintf.o)
                                                  /home/kedou/Project/OpenRE/Tools/gcc-arm-none-eabi-5_4-2016q2/bin/../lib/gcc/arm-none-eabi/5.4.1/../../../../arm-none-eabi/lib/armv7e-m/fpu/libg.a(lib_a-puts.o)
__sinit_lock_acquire                              /home/kedou/Project/OpenRE/Tools/gcc-arm-none-eabi-5_4-2016q2/bin/../lib/gcc/arm-none-eabi/5.4.1/../../../../arm-none-eabi/lib/armv7e-m/fpu/libg.a(lib_a-findfp.o)
__sinit_lock_release                              /home/kedou/Project/OpenRE/Tools/gcc-arm-none-eabi-5_4-2016q2/bin/../lib/gcc/arm-none-eabi/5.4.1/../../../../arm-none-eabi/lib/armv7e-m/fpu/libg.a(lib_a-findfp.o)
__smakebuf_r                                      /home/kedou/Project/OpenRE/Tools/gcc-arm-none-eabi-5_4-2016q2/bin/../lib/gcc/arm-none-eabi/5.4.1/../../../../arm-none-eabi/lib/armv7e-m/fpu/libg.a(lib_a-makebuf.o)
                                                  /home/kedou/Project/OpenRE/Tools/gcc-arm-none-eabi-5_4-2016q2/bin/../lib/gcc/arm-none-eabi/5.4.1/../../../../arm-none-eabi/lib/armv7e-m/fpu/libg.a(lib_a-wsetup.o)
__sprint_r                                        /home/kedou/Project/OpenRE/Tools/gcc-arm-none-eabi-5_4-2016q2/bin/../lib/gcc/arm-none-eabi/5.4.1/../../../../arm-none-eabi/lib/armv7e-m/fpu/libg.a(lib_a-vfiprintf.o)
                                                  /home/kedou/Project/OpenRE/Tools/gcc-arm-none-eabi-5_4-2016q2/bin/../lib/gcc/arm-none-eabi/5.4.1/../../../../arm-none-eabi/lib/armv7e-m/fpu/libg.a(lib_a-vfprintf.o)
__sread                                           /home/kedou/Project/OpenRE/Tools/gcc-arm-none-eabi-5_4-2016q2/bin/../lib/gcc/arm-none-eabi/5.4.1/../../../../arm-none-eabi/lib/armv7e-m/fpu/libg.a(lib_a-stdio.o)
                                                  /home/kedou/Project/OpenRE/Tools/gcc-arm-none-eabi-5_4-2016q2/bin/../lib/gcc/arm-none-eabi/5.4.1/../../../../arm-none-eabi/lib/armv7e-m/fpu/libg.a(lib_a-findfp.o)
__sseek                                           /home/kedou/Project/OpenRE/Tools/gcc-arm-none-eabi-5_4-2016q2/bin/../lib/gcc/arm-none-eabi/5.4.1/../../../../arm-none-eabi/lib/armv7e-m/fpu/libg.a(lib_a-stdio.o)
                                                  /home/kedou/Project/OpenRE/Tools/gcc-arm-none-eabi-5_4-2016q2/bin/../lib/gcc/arm-none-eabi/5.4.1/../../../../arm-none-eabi/lib/armv7e-m/fpu/libg.a(lib_a-findfp.o)
__subdf3                                          /home/kedou/Project/OpenRE/Tools/gcc-arm-none-eabi-5_4-2016q2/bin/../lib/gcc/arm-none-eabi/5.4.1/armv7e-m/fpu/libgcc.a(_arm_addsubdf3.o)
__swbuf                                           /home/kedou/Project/OpenRE/Tools/gcc-arm-none-eabi-5_4-2016q2/bin/../lib/gcc/arm-none-eabi/5.4.1/../../../../arm-none-eabi/lib/armv7e-m/fpu/libg.a(lib_a-wbuf.o)
__swbuf_r                                         /home/kedou/Project/OpenRE/Tools/gcc-arm-none-eabi-5_4-2016q2/bin/../lib/gcc/arm-none-eabi/5.4.1/../../../../arm-none-eabi/lib/armv7e-m/fpu/libg.a(lib_a-wbuf.o)
                                                  /home/kedou/Project/OpenRE/Tools/gcc-arm-none-eabi-5_4-2016q2/bin/../lib/gcc/arm-none-eabi/5.4.1/../../../../arm-none-eabi/lib/armv7e-m/fpu/libg.a(lib_a-fputwc.o)
__swhatbuf_r                                      /home/kedou/Project/OpenRE/Tools/gcc-arm-none-eabi-5_4-2016q2/bin/../lib/gcc/arm-none-eabi/5.4.1/../../../../arm-none-eabi/lib/armv7e-m/fpu/libg.a(lib_a-makebuf.o)
__swrite                                          /home/kedou/Project/OpenRE/Tools/gcc-arm-none-eabi-5_4-2016q2/bin/../lib/gcc/arm-none-eabi/5.4.1/../../../../arm-none-eabi/lib/armv7e-m/fpu/libg.a(lib_a-stdio.o)
                                                  /home/kedou/Project/OpenRE/Tools/gcc-arm-none-eabi-5_4-2016q2/bin/../lib/gcc/arm-none-eabi/5.4.1/../../../../arm-none-eabi/lib/armv7e-m/fpu/libg.a(lib_a-findfp.o)
__swsetup_r                                       /home/kedou/Project/OpenRE/Tools/gcc-arm-none-eabi-5_4-2016q2/bin/../lib/gcc/arm-none-eabi/5.4.1/../../../../arm-none-eabi/lib/armv7e-m/fpu/libg.a(lib_a-wsetup.o)
                                                  /home/kedou/Project/OpenRE/Tools/gcc-arm-none-eabi-5_4-2016q2/bin/../lib/gcc/arm-none-eabi/5.4.1/../../../../arm-none-eabi/lib/armv7e-m/fpu/libg.a(lib_a-wbuf.o)
                                                  /home/kedou/Project/OpenRE/Tools/gcc-arm-none-eabi-5_4-2016q2/bin/../lib/gcc/arm-none-eabi/5.4.1/../../../../arm-none-eabi/lib/armv7e-m/fpu/libg.a(lib_a-vfiprintf.o)
                                                  /home/kedou/Project/OpenRE/Tools/gcc-arm-none-eabi-5_4-2016q2/bin/../lib/gcc/arm-none-eabi/5.4.1/../../../../arm-none-eabi/lib/armv7e-m/fpu/libg.a(lib_a-fvwrite.o)
                                                  /home/kedou/Project/OpenRE/Tools/gcc-arm-none-eabi-5_4-2016q2/bin/../lib/gcc/arm-none-eabi/5.4.1/../../../../arm-none-eabi/lib/armv7e-m/fpu/libg.a(lib_a-vfprintf.o)
__udivmoddi4                                      /home/kedou/Project/OpenRE/Tools/gcc-arm-none-eabi-5_4-2016q2/bin/../lib/gcc/arm-none-eabi/5.4.1/armv7e-m/fpu/libgcc.a(_udivmoddi4.o)
                                                  /home/kedou/Project/OpenRE/Tools/gcc-arm-none-eabi-5_4-2016q2/bin/../lib/gcc/arm-none-eabi/5.4.1/armv7e-m/fpu/libgcc.a(_aeabi_uldivmod.o)
__ulp                                             /home/kedou/Project/OpenRE/Tools/gcc-arm-none-eabi-5_4-2016q2/bin/../lib/gcc/arm-none-eabi/5.4.1/../../../../arm-none-eabi/lib/armv7e-m/fpu/libg.a(lib_a-mprec.o)
__unorddf2                                        /home/kedou/Project/OpenRE/Tools/gcc-arm-none-eabi-5_4-2016q2/bin/../lib/gcc/arm-none-eabi/5.4.1/armv7e-m/fpu/libgcc.a(_arm_unorddf2.o)
__wctomb                                          /home/kedou/Project/OpenRE/Tools/gcc-arm-none-eabi-5_4-2016q2/bin/../lib/gcc/arm-none-eabi/5.4.1/../../../../arm-none-eabi/lib/armv7e-m/fpu/libg.a(lib_a-wctomb_r.o)
                                                  /home/kedou/Project/OpenRE/Tools/gcc-arm-none-eabi-5_4-2016q2/bin/../lib/gcc/arm-none-eabi/5.4.1/../../../../arm-none-eabi/lib/armv7e-m/fpu/libg.a(lib_a-wcrtomb.o)
_calloc_r                                         /home/kedou/Project/OpenRE/Tools/gcc-arm-none-eabi-5_4-2016q2/bin/../lib/gcc/arm-none-eabi/5.4.1/../../../../arm-none-eabi/lib/armv7e-m/fpu/libg.a(lib_a-callocr.o)
                                                  /home/kedou/Project/OpenRE/Tools/gcc-arm-none-eabi-5_4-2016q2/bin/../lib/gcc/arm-none-eabi/5.4.1/../../../../arm-none-eabi/lib/armv7e-m/fpu/libg.a(lib_a-mprec.o)
_cleanup                                          /home/kedou/Project/OpenRE/Tools/gcc-arm-none-eabi-5_4-2016q2/bin/../lib/gcc/arm-none-eabi/5.4.1/../../../../arm-none-eabi/lib/armv7e-m/fpu/libg.a(lib_a-findfp.o)
_cleanup_r                                        /home/kedou/Project/OpenRE/Tools/gcc-arm-none-eabi-5_4-2016q2/bin/../lib/gcc/arm-none-eabi/5.4.1/../../../../arm-none-eabi/lib/armv7e-m/fpu/libg.a(lib_a-findfp.o)
                                                  /home/kedou/Project/OpenRE/Tools/gcc-arm-none-eabi-5_4-2016q2/bin/../lib/gcc/arm-none-eabi/5.4.1/../../../../arm-none-eabi/lib/armv7e-m/fpu/libg.a(lib_a-makebuf.o)
_close                                            ../../../../1_Processor/STM32F4/BSPLIB/usart.o
                                                  /home/kedou/Project/OpenRE/Tools/gcc-arm-none-eabi-5_4-2016q2/bin/../lib/gcc/arm-none-eabi/5.4.1/../../../../arm-none-eabi/lib/armv7e-m/fpu/libg.a(lib_a-closer.o)
_close_r                                          /home/kedou/Project/OpenRE/Tools/gcc-arm-none-eabi-5_4-2016q2/bin/../lib/gcc/arm-none-eabi/5.4.1/../../../../arm-none-eabi/lib/armv7e-m/fpu/libg.a(lib_a-closer.o)
                                                  /home/kedou/Project/OpenRE/Tools/gcc-arm-none-eabi-5_4-2016q2/bin/../lib/gcc/arm-none-eabi/5.4.1/../../../../arm-none-eabi/lib/armv7e-m/fpu/libg.a(lib_a-stdio.o)
_dtoa_r                                           /home/kedou/Project/OpenRE/Tools/gcc-arm-none-eabi-5_4-2016q2/bin/../lib/gcc/arm-none-eabi/5.4.1/../../../../arm-none-eabi/lib/armv7e-m/fpu/libg.a(lib_a-dtoa.o)
                                                  /home/kedou/Project/OpenRE/Tools/gcc-arm-none-eabi-5_4-2016q2/bin/../lib/gcc/arm-none-eabi/5.4.1/../../../../arm-none-eabi/lib/armv7e-m/fpu/libg.a(lib_a-vfprintf.o)
_ebss                                             ../../../../1_Processor/STM32F4/BSPLIB/usart.o
                                                  ../../../../1_Processor/STM32F4/STM32F4-Discovery_FW_V1.1.0/Libraries/CMSIS/ST/STM32F4xx/Source/Templates/gcc_ride7/startup_stm32f4xx.o
_edata                                            ../../../../1_Processor/STM32F4/STM32F4-Discovery_FW_V1.1.0/Libraries/CMSIS/ST/STM32F4xx/Source/Templates/gcc_ride7/startup_stm32f4xx.o
_estack                                           ../../../../1_Processor/STM32F4/STM32F4-Discovery_FW_V1.1.0/Libraries/CMSIS/ST/STM32F4xx/Source/Templates/gcc_ride7/startup_stm32f4xx.o
_execve                                           ../../../../1_Processor/STM32F4/BSPLIB/usart.o
_exit                                             ../../../../1_Processor/STM32F4/BSPLIB/usart.o
_fclose_r                                         /home/kedou/Project/OpenRE/Tools/gcc-arm-none-eabi-5_4-2016q2/bin/../lib/gcc/arm-none-eabi/5.4.1/../../../../arm-none-eabi/lib/armv7e-m/fpu/libg.a(lib_a-fclose.o)
                                                  /home/kedou/Project/OpenRE/Tools/gcc-arm-none-eabi-5_4-2016q2/bin/../lib/gcc/arm-none-eabi/5.4.1/../../../../arm-none-eabi/lib/armv7e-m/fpu/libg.a(lib_a-findfp.o)
_fflush_r                                         /home/kedou/Project/OpenRE/Tools/gcc-arm-none-eabi-5_4-2016q2/bin/../lib/gcc/arm-none-eabi/5.4.1/../../../../arm-none-eabi/lib/armv7e-m/fpu/libg.a(lib_a-fflush.o)
                                                  /home/kedou/Project/OpenRE/Tools/gcc-arm-none-eabi-5_4-2016q2/bin/../lib/gcc/arm-none-eabi/5.4.1/../../../../arm-none-eabi/lib/armv7e-m/fpu/libg.a(lib_a-wbuf.o)
                                                  /home/kedou/Project/OpenRE/Tools/gcc-arm-none-eabi-5_4-2016q2/bin/../lib/gcc/arm-none-eabi/5.4.1/../../../../arm-none-eabi/lib/armv7e-m/fpu/libg.a(lib_a-vfiprintf.o)
                                                  /home/kedou/Project/OpenRE/Tools/gcc-arm-none-eabi-5_4-2016q2/bin/../lib/gcc/arm-none-eabi/5.4.1/../../../../arm-none-eabi/lib/armv7e-m/fpu/libg.a(lib_a-fvwrite.o)
                                                  /home/kedou/Project/OpenRE/Tools/gcc-arm-none-eabi-5_4-2016q2/bin/../lib/gcc/arm-none-eabi/5.4.1/../../../../arm-none-eabi/lib/armv7e-m/fpu/libg.a(lib_a-vfprintf.o)
_fork                                             ../../../../1_Processor/STM32F4/BSPLIB/usart.o
_fputwc_r                                         /home/kedou/Project/OpenRE/Tools/gcc-arm-none-eabi-5_4-2016q2/bin/../lib/gcc/arm-none-eabi/5.4.1/../../../../arm-none-eabi/lib/armv7e-m/fpu/libg.a(lib_a-fputwc.o)
                                                  /home/kedou/Project/OpenRE/Tools/gcc-arm-none-eabi-5_4-2016q2/bin/../lib/gcc/arm-none-eabi/5.4.1/../../../../arm-none-eabi/lib/armv7e-m/fpu/libg.a(lib_a-vfiprintf.o)
_free_r                                           /home/kedou/Project/OpenRE/Tools/gcc-arm-none-eabi-5_4-2016q2/bin/../lib/gcc/arm-none-eabi/5.4.1/../../../../arm-none-eabi/lib/armv7e-m/fpu/libg.a(lib_a-freer.o)
                                                  /home/kedou/Project/OpenRE/Tools/gcc-arm-none-eabi-5_4-2016q2/bin/../lib/gcc/arm-none-eabi/5.4.1/../../../../arm-none-eabi/lib/armv7e-m/fpu/libg.a(lib_a-fclose.o)
                                                  /home/kedou/Project/OpenRE/Tools/gcc-arm-none-eabi-5_4-2016q2/bin/../lib/gcc/arm-none-eabi/5.4.1/../../../../arm-none-eabi/lib/armv7e-m/fpu/libg.a(lib_a-reallocr.o)
                                                  /home/kedou/Project/OpenRE/Tools/gcc-arm-none-eabi-5_4-2016q2/bin/../lib/gcc/arm-none-eabi/5.4.1/../../../../arm-none-eabi/lib/armv7e-m/fpu/libg.a(lib_a-mallocr.o)
                                                  /home/kedou/Project/OpenRE/Tools/gcc-arm-none-eabi-5_4-2016q2/bin/../lib/gcc/arm-none-eabi/5.4.1/../../../../arm-none-eabi/lib/armv7e-m/fpu/libg.a(lib_a-fvwrite.o)
                                                  /home/kedou/Project/OpenRE/Tools/gcc-arm-none-eabi-5_4-2016q2/bin/../lib/gcc/arm-none-eabi/5.4.1/../../../../arm-none-eabi/lib/armv7e-m/fpu/libg.a(lib_a-fflush.o)
                                                  /home/kedou/Project/OpenRE/Tools/gcc-arm-none-eabi-5_4-2016q2/bin/../lib/gcc/arm-none-eabi/5.4.1/../../../../arm-none-eabi/lib/armv7e-m/fpu/libg.a(lib_a-wsetup.o)
                                                  /home/kedou/Project/OpenRE/Tools/gcc-arm-none-eabi-5_4-2016q2/bin/../lib/gcc/arm-none-eabi/5.4.1/../../../../arm-none-eabi/lib/armv7e-m/fpu/libg.a(lib_a-reent.o)
_fstat                                            ../../../../1_Processor/STM32F4/BSPLIB/usart.o
                                                  /home/kedou/Project/OpenRE/Tools/gcc-arm-none-eabi-5_4-2016q2/bin/../lib/gcc/arm-none-eabi/5.4.1/../../../../arm-none-eabi/lib/armv7e-m/fpu/libg.a(lib_a-fstatr.o)
_fstat_r                                          /home/kedou/Project/OpenRE/Tools/gcc-arm-none-eabi-5_4-2016q2/bin/../lib/gcc/arm-none-eabi/5.4.1/../../../../arm-none-eabi/lib/armv7e-m/fpu/libg.a(lib_a-fstatr.o)
                                                  /home/kedou/Project/OpenRE/Tools/gcc-arm-none-eabi-5_4-2016q2/bin/../lib/gcc/arm-none-eabi/5.4.1/../../../../arm-none-eabi/lib/armv7e-m/fpu/libg.a(lib_a-makebuf.o)
_fwalk                                            /home/kedou/Project/OpenRE/Tools/gcc-arm-none-eabi-5_4-2016q2/bin/../lib/gcc/arm-none-eabi/5.4.1/../../../../arm-none-eabi/lib/armv7e-m/fpu/libg.a(lib_a-fwalk.o)
                                                  /home/kedou/Project/OpenRE/Tools/gcc-arm-none-eabi-5_4-2016q2/bin/../lib/gcc/arm-none-eabi/5.4.1/../../../../arm-none-eabi/lib/armv7e-m/fpu/libg.a(lib_a-findfp.o)
_fwalk_reent                                      /home/kedou/Project/OpenRE/Tools/gcc-arm-none-eabi-5_4-2016q2/bin/../lib/gcc/arm-none-eabi/5.4.1/../../../../arm-none-eabi/lib/armv7e-m/fpu/libg.a(lib_a-fwalk.o)
                                                  /home/kedou/Project/OpenRE/Tools/gcc-arm-none-eabi-5_4-2016q2/bin/../lib/gcc/arm-none-eabi/5.4.1/../../../../arm-none-eabi/lib/armv7e-m/fpu/libg.a(lib_a-findfp.o)
                                                  /home/kedou/Project/OpenRE/Tools/gcc-arm-none-eabi-5_4-2016q2/bin/../lib/gcc/arm-none-eabi/5.4.1/../../../../arm-none-eabi/lib/armv7e-m/fpu/libg.a(lib_a-fflush.o)
_getpid                                           ../../../../1_Processor/STM32F4/BSPLIB/usart.o
_global_impure_ptr                                /home/kedou/Project/OpenRE/Tools/gcc-arm-none-eabi-5_4-2016q2/bin/../lib/gcc/arm-none-eabi/5.4.1/../../../../arm-none-eabi/lib/armv7e-m/fpu/libg.a(lib_a-impure.o)
                                                  /home/kedou/Project/OpenRE/Tools/gcc-arm-none-eabi-5_4-2016q2/bin/../lib/gcc/arm-none-eabi/5.4.1/../../../../arm-none-eabi/lib/armv7e-m/fpu/libg.a(lib_a-findfp.o)
                                                  /home/kedou/Project/OpenRE/Tools/gcc-arm-none-eabi-5_4-2016q2/bin/../lib/gcc/arm-none-eabi/5.4.1/../../../../arm-none-eabi/lib/armv7e-m/fpu/libg.a(lib_a-fflush.o)
_impure_ptr                                       /home/kedou/Project/OpenRE/Tools/gcc-arm-none-eabi-5_4-2016q2/bin/../lib/gcc/arm-none-eabi/5.4.1/../../../../arm-none-eabi/lib/armv7e-m/fpu/libg.a(lib_a-impure.o)
                                                  /home/kedou/Project/OpenRE/Tools/gcc-arm-none-eabi-5_4-2016q2/bin/../lib/gcc/arm-none-eabi/5.4.1/../../../../arm-none-eabi/lib/armv7e-m/fpu/libg.a(lib_a-wcrtomb.o)
                                                  /home/kedou/Project/OpenRE/Tools/gcc-arm-none-eabi-5_4-2016q2/bin/../lib/gcc/arm-none-eabi/5.4.1/../../../../arm-none-eabi/lib/armv7e-m/fpu/libg.a(lib_a-wbuf.o)
                                                  /home/kedou/Project/OpenRE/Tools/gcc-arm-none-eabi-5_4-2016q2/bin/../lib/gcc/arm-none-eabi/5.4.1/../../../../arm-none-eabi/lib/armv7e-m/fpu/libg.a(lib_a-fputwc.o)
                                                  /home/kedou/Project/OpenRE/Tools/gcc-arm-none-eabi-5_4-2016q2/bin/../lib/gcc/arm-none-eabi/5.4.1/../../../../arm-none-eabi/lib/armv7e-m/fpu/libg.a(lib_a-fclose.o)
                                                  /home/kedou/Project/OpenRE/Tools/gcc-arm-none-eabi-5_4-2016q2/bin/../lib/gcc/arm-none-eabi/5.4.1/../../../../arm-none-eabi/lib/armv7e-m/fpu/libg.a(lib_a-vfiprintf.o)
                                                  /home/kedou/Project/OpenRE/Tools/gcc-arm-none-eabi-5_4-2016q2/bin/../lib/gcc/arm-none-eabi/5.4.1/../../../../arm-none-eabi/lib/armv7e-m/fpu/libg.a(lib_a-locale.o)
                                                  /home/kedou/Project/OpenRE/Tools/gcc-arm-none-eabi-5_4-2016q2/bin/../lib/gcc/arm-none-eabi/5.4.1/../../../../arm-none-eabi/lib/armv7e-m/fpu/libg.a(lib_a-findfp.o)
                                                  /home/kedou/Project/OpenRE/Tools/gcc-arm-none-eabi-5_4-2016q2/bin/../lib/gcc/arm-none-eabi/5.4.1/../../../../arm-none-eabi/lib/armv7e-m/fpu/libg.a(lib_a-fflush.o)
                                                  /home/kedou/Project/OpenRE/Tools/gcc-arm-none-eabi-5_4-2016q2/bin/../lib/gcc/arm-none-eabi/5.4.1/../../../../arm-none-eabi/lib/armv7e-m/fpu/libg.a(lib_a-wsetup.o)
                                                  /home/kedou/Project/OpenRE/Tools/gcc-arm-none-eabi-5_4-2016q2/bin/../lib/gcc/arm-none-eabi/5.4.1/../../../../arm-none-eabi/lib/armv7e-m/fpu/libg.a(lib_a-vfprintf.o)
                                                  /home/kedou/Project/OpenRE/Tools/gcc-arm-none-eabi-5_4-2016q2/bin/../lib/gcc/arm-none-eabi/5.4.1/../../../../arm-none-eabi/lib/armv7e-m/fpu/libg.a(lib_a-reent.o)
                                                  /home/kedou/Project/OpenRE/Tools/gcc-arm-none-eabi-5_4-2016q2/bin/../lib/gcc/arm-none-eabi/5.4.1/../../../../arm-none-eabi/lib/armv7e-m/fpu/libg.a(lib_a-puts.o)
                                                  /home/kedou/Project/OpenRE/Tools/gcc-arm-none-eabi-5_4-2016q2/bin/../lib/gcc/arm-none-eabi/5.4.1/../../../../arm-none-eabi/lib/armv7e-m/fpu/libg.a(lib_a-printf.o)
_isatty                                           ../../../../1_Processor/STM32F4/BSPLIB/usart.o
                                                  /home/kedou/Project/OpenRE/Tools/gcc-arm-none-eabi-5_4-2016q2/bin/../lib/gcc/arm-none-eabi/5.4.1/../../../../arm-none-eabi/lib/armv7e-m/fpu/libg.a(lib_a-isattyr.o)
_isatty_r                                         /home/kedou/Project/OpenRE/Tools/gcc-arm-none-eabi-5_4-2016q2/bin/../lib/gcc/arm-none-eabi/5.4.1/../../../../arm-none-eabi/lib/armv7e-m/fpu/libg.a(lib_a-isattyr.o)
                                                  /home/kedou/Project/OpenRE/Tools/gcc-arm-none-eabi-5_4-2016q2/bin/../lib/gcc/arm-none-eabi/5.4.1/../../../../arm-none-eabi/lib/armv7e-m/fpu/libg.a(lib_a-makebuf.o)
_kill                                             ../../../../1_Processor/STM32F4/BSPLIB/usart.o
_link                                             ../../../../1_Processor/STM32F4/BSPLIB/usart.o
_localeconv_r                                     /home/kedou/Project/OpenRE/Tools/gcc-arm-none-eabi-5_4-2016q2/bin/../lib/gcc/arm-none-eabi/5.4.1/../../../../arm-none-eabi/lib/armv7e-m/fpu/libg.a(lib_a-locale.o)
                                                  /home/kedou/Project/OpenRE/Tools/gcc-arm-none-eabi-5_4-2016q2/bin/../lib/gcc/arm-none-eabi/5.4.1/../../../../arm-none-eabi/lib/armv7e-m/fpu/libg.a(lib_a-vfprintf.o)
_lseek                                            ../../../../1_Processor/STM32F4/BSPLIB/usart.o
                                                  /home/kedou/Project/OpenRE/Tools/gcc-arm-none-eabi-5_4-2016q2/bin/../lib/gcc/arm-none-eabi/5.4.1/../../../../arm-none-eabi/lib/armv7e-m/fpu/libg.a(lib_a-lseekr.o)
_lseek_r                                          /home/kedou/Project/OpenRE/Tools/gcc-arm-none-eabi-5_4-2016q2/bin/../lib/gcc/arm-none-eabi/5.4.1/../../../../arm-none-eabi/lib/armv7e-m/fpu/libg.a(lib_a-lseekr.o)
                                                  /home/kedou/Project/OpenRE/Tools/gcc-arm-none-eabi-5_4-2016q2/bin/../lib/gcc/arm-none-eabi/5.4.1/../../../../arm-none-eabi/lib/armv7e-m/fpu/libg.a(lib_a-stdio.o)
_malloc_r                                         /home/kedou/Project/OpenRE/Tools/gcc-arm-none-eabi-5_4-2016q2/bin/../lib/gcc/arm-none-eabi/5.4.1/../../../../arm-none-eabi/lib/armv7e-m/fpu/libg.a(lib_a-mallocr.o)
                                                  /home/kedou/Project/OpenRE/Tools/gcc-arm-none-eabi-5_4-2016q2/bin/../lib/gcc/arm-none-eabi/5.4.1/../../../../arm-none-eabi/lib/armv7e-m/fpu/libg.a(lib_a-callocr.o)
                                                  /home/kedou/Project/OpenRE/Tools/gcc-arm-none-eabi-5_4-2016q2/bin/../lib/gcc/arm-none-eabi/5.4.1/../../../../arm-none-eabi/lib/armv7e-m/fpu/libg.a(lib_a-reallocr.o)
                                                  /home/kedou/Project/OpenRE/Tools/gcc-arm-none-eabi-5_4-2016q2/bin/../lib/gcc/arm-none-eabi/5.4.1/../../../../arm-none-eabi/lib/armv7e-m/fpu/libg.a(lib_a-makebuf.o)
                                                  /home/kedou/Project/OpenRE/Tools/gcc-arm-none-eabi-5_4-2016q2/bin/../lib/gcc/arm-none-eabi/5.4.1/../../../../arm-none-eabi/lib/armv7e-m/fpu/libg.a(lib_a-fvwrite.o)
                                                  /home/kedou/Project/OpenRE/Tools/gcc-arm-none-eabi-5_4-2016q2/bin/../lib/gcc/arm-none-eabi/5.4.1/../../../../arm-none-eabi/lib/armv7e-m/fpu/libg.a(lib_a-findfp.o)
_malloc_trim_r                                    /home/kedou/Project/OpenRE/Tools/gcc-arm-none-eabi-5_4-2016q2/bin/../lib/gcc/arm-none-eabi/5.4.1/../../../../arm-none-eabi/lib/armv7e-m/fpu/libg.a(lib_a-freer.o)
_mprec_log10                                      /home/kedou/Project/OpenRE/Tools/gcc-arm-none-eabi-5_4-2016q2/bin/../lib/gcc/arm-none-eabi/5.4.1/../../../../arm-none-eabi/lib/armv7e-m/fpu/libg.a(lib_a-mprec.o)
_printf_r                                         /home/kedou/Project/OpenRE/Tools/gcc-arm-none-eabi-5_4-2016q2/bin/../lib/gcc/arm-none-eabi/5.4.1/../../../../arm-none-eabi/lib/armv7e-m/fpu/libg.a(lib_a-printf.o)
_puts_r                                           /home/kedou/Project/OpenRE/Tools/gcc-arm-none-eabi-5_4-2016q2/bin/../lib/gcc/arm-none-eabi/5.4.1/../../../../arm-none-eabi/lib/armv7e-m/fpu/libg.a(lib_a-puts.o)
_read                                             ../../../../1_Processor/STM32F4/BSPLIB/usart.o
                                                  /home/kedou/Project/OpenRE/Tools/gcc-arm-none-eabi-5_4-2016q2/bin/../lib/gcc/arm-none-eabi/5.4.1/../../../../arm-none-eabi/lib/armv7e-m/fpu/libg.a(lib_a-readr.o)
_read_r                                           /home/kedou/Project/OpenRE/Tools/gcc-arm-none-eabi-5_4-2016q2/bin/../lib/gcc/arm-none-eabi/5.4.1/../../../../arm-none-eabi/lib/armv7e-m/fpu/libg.a(lib_a-readr.o)
                                                  /home/kedou/Project/OpenRE/Tools/gcc-arm-none-eabi-5_4-2016q2/bin/../lib/gcc/arm-none-eabi/5.4.1/../../../../arm-none-eabi/lib/armv7e-m/fpu/libg.a(lib_a-stdio.o)
_realloc_r                                        /home/kedou/Project/OpenRE/Tools/gcc-arm-none-eabi-5_4-2016q2/bin/../lib/gcc/arm-none-eabi/5.4.1/../../../../arm-none-eabi/lib/armv7e-m/fpu/libg.a(lib_a-reallocr.o)
                                                  /home/kedou/Project/OpenRE/Tools/gcc-arm-none-eabi-5_4-2016q2/bin/../lib/gcc/arm-none-eabi/5.4.1/../../../../arm-none-eabi/lib/armv7e-m/fpu/libg.a(lib_a-fvwrite.o)
_reclaim_reent                                    /home/kedou/Project/OpenRE/Tools/gcc-arm-none-eabi-5_4-2016q2/bin/../lib/gcc/arm-none-eabi/5.4.1/../../../../arm-none-eabi/lib/armv7e-m/fpu/libg.a(lib_a-reent.o)
_sbrk                                             ../../../../1_Processor/STM32F4/BSPLIB/usart.o
                                                  /home/kedou/Project/OpenRE/Tools/gcc-arm-none-eabi-5_4-2016q2/bin/../lib/gcc/arm-none-eabi/5.4.1/../../../../arm-none-eabi/lib/armv7e-m/fpu/libg.a(lib_a-sbrkr.o)
_sbrk_r                                           /home/kedou/Project/OpenRE/Tools/gcc-arm-none-eabi-5_4-2016q2/bin/../lib/gcc/arm-none-eabi/5.4.1/../../../../arm-none-eabi/lib/armv7e-m/fpu/libg.a(lib_a-sbrkr.o)
                                                  /home/kedou/Project/OpenRE/Tools/gcc-arm-none-eabi-5_4-2016q2/bin/../lib/gcc/arm-none-eabi/5.4.1/../../../../arm-none-eabi/lib/armv7e-m/fpu/libg.a(lib_a-mallocr.o)
                                                  /home/kedou/Project/OpenRE/Tools/gcc-arm-none-eabi-5_4-2016q2/bin/../lib/gcc/arm-none-eabi/5.4.1/../../../../arm-none-eabi/lib/armv7e-m/fpu/libg.a(lib_a-freer.o)
_sbss                                             ../../../../1_Processor/STM32F4/STM32F4-Discovery_FW_V1.1.0/Libraries/CMSIS/ST/STM32F4xx/Source/Templates/gcc_ride7/startup_stm32f4xx.o
_sdata                                            ../../../../1_Processor/STM32F4/STM32F4-Discovery_FW_V1.1.0/Libraries/CMSIS/ST/STM32F4xx/Source/Templates/gcc_ride7/startup_stm32f4xx.o
_setlocale_r                                      /home/kedou/Project/OpenRE/Tools/gcc-arm-none-eabi-5_4-2016q2/bin/../lib/gcc/arm-none-eabi/5.4.1/../../../../arm-none-eabi/lib/armv7e-m/fpu/libg.a(lib_a-locale.o)
_sidata                                           ../../../../1_Processor/STM32F4/STM32F4-Discovery_FW_V1.1.0/Libraries/CMSIS/ST/STM32F4xx/Source/Templates/gcc_ride7/startup_stm32f4xx.o
_stat                                             ../../../../1_Processor/STM32F4/BSPLIB/usart.o
_times                                            ../../../../1_Processor/STM32F4/BSPLIB/usart.o
_unlink                                           ../../../../1_Processor/STM32F4/BSPLIB/usart.o
_vfiprintf_r                                      /home/kedou/Project/OpenRE/Tools/gcc-arm-none-eabi-5_4-2016q2/bin/../lib/gcc/arm-none-eabi/5.4.1/../../../../arm-none-eabi/lib/armv7e-m/fpu/libg.a(lib_a-vfiprintf.o)
_vfprintf_r                                       /home/kedou/Project/OpenRE/Tools/gcc-arm-none-eabi-5_4-2016q2/bin/../lib/gcc/arm-none-eabi/5.4.1/../../../../arm-none-eabi/lib/armv7e-m/fpu/libg.a(lib_a-vfprintf.o)
                                                  /home/kedou/Project/OpenRE/Tools/gcc-arm-none-eabi-5_4-2016q2/bin/../lib/gcc/arm-none-eabi/5.4.1/../../../../arm-none-eabi/lib/armv7e-m/fpu/libg.a(lib_a-printf.o)
_wait                                             ../../../../1_Processor/STM32F4/BSPLIB/usart.o
_wcrtomb_r                                        /home/kedou/Project/OpenRE/Tools/gcc-arm-none-eabi-5_4-2016q2/bin/../lib/gcc/arm-none-eabi/5.4.1/../../../../arm-none-eabi/lib/armv7e-m/fpu/libg.a(lib_a-wcrtomb.o)
                                                  /home/kedou/Project/OpenRE/Tools/gcc-arm-none-eabi-5_4-2016q2/bin/../lib/gcc/arm-none-eabi/5.4.1/../../../../arm-none-eabi/lib/armv7e-m/fpu/libg.a(lib_a-fputwc.o)
_wctomb_r                                         /home/kedou/Project/OpenRE/Tools/gcc-arm-none-eabi-5_4-2016q2/bin/../lib/gcc/arm-none-eabi/5.4.1/../../../../arm-none-eabi/lib/armv7e-m/fpu/libg.a(lib_a-wctomb_r.o)
_write                                            ../../../../1_Processor/STM32F4/BSPLIB/usart.o
                                                  /home/kedou/Project/OpenRE/Tools/gcc-arm-none-eabi-5_4-2016q2/bin/../lib/gcc/arm-none-eabi/5.4.1/../../../../arm-none-eabi/lib/armv7e-m/fpu/libg.a(lib_a-writer.o)
_write_r                                          /home/kedou/Project/OpenRE/Tools/gcc-arm-none-eabi-5_4-2016q2/bin/../lib/gcc/arm-none-eabi/5.4.1/../../../../arm-none-eabi/lib/armv7e-m/fpu/libg.a(lib_a-writer.o)
                                                  /home/kedou/Project/OpenRE/Tools/gcc-arm-none-eabi-5_4-2016q2/bin/../lib/gcc/arm-none-eabi/5.4.1/../../../../arm-none-eabi/lib/armv7e-m/fpu/libg.a(lib_a-stdio.o)
board                                             ../../../../1_Processor/BoardAbstract/control_unit_v1.o
                                                  ../src/stm32f4xx_it.o
                                                  ../src/main.o
calendar_r                                        ../../../../1_Processor/STM32F4/BSPLIB/rtc.o
cleanup_glue                                      /home/kedou/Project/OpenRE/Tools/gcc-arm-none-eabi-5_4-2016q2/bin/../lib/gcc/arm-none-eabi/5.4.1/../../../../arm-none-eabi/lib/armv7e-m/fpu/libg.a(lib_a-reent.o)
constructorInit()                                 ../src/main.o
delay_init                                        ../../../../1_Processor/STM32F4/BSPLIB/delay.o
                                                  ../../../../1_Processor/BoardAbstract/control_unit_v1.o
delay_ms                                          ../../../../1_Processor/STM32F4/BSPLIB/delay.o
                                                  ../../../../1_Processor/BoardAbstract/control_unit_v1.o
                                                  ../../../../1_Processor/STM32F4/BSPLIB/wdg_wkup.o
                                                  ../../../../1_Processor/STM32F4/BSPLIB/rtc.o
delay_us                                          ../../../../1_Processor/STM32F4/BSPLIB/delay.o
environ                                           ../../../../1_Processor/STM32F4/BSPLIB/usart.o
errno                                             /home/kedou/Project/OpenRE/Tools/gcc-arm-none-eabi-5_4-2016q2/bin/../lib/gcc/arm-none-eabi/5.4.1/../../../../arm-none-eabi/lib/armv7e-m/fpu/libg.a(lib_a-reent.o)
                                                  /home/kedou/Project/OpenRE/Tools/gcc-arm-none-eabi-5_4-2016q2/bin/../lib/gcc/arm-none-eabi/5.4.1/../../../../arm-none-eabi/lib/armv7e-m/fpu/libg.a(lib_a-readr.o)
                                                  /home/kedou/Project/OpenRE/Tools/gcc-arm-none-eabi-5_4-2016q2/bin/../lib/gcc/arm-none-eabi/5.4.1/../../../../arm-none-eabi/lib/armv7e-m/fpu/libg.a(lib_a-lseekr.o)
                                                  /home/kedou/Project/OpenRE/Tools/gcc-arm-none-eabi-5_4-2016q2/bin/../lib/gcc/arm-none-eabi/5.4.1/../../../../arm-none-eabi/lib/armv7e-m/fpu/libg.a(lib_a-isattyr.o)
                                                  /home/kedou/Project/OpenRE/Tools/gcc-arm-none-eabi-5_4-2016q2/bin/../lib/gcc/arm-none-eabi/5.4.1/../../../../arm-none-eabi/lib/armv7e-m/fpu/libg.a(lib_a-fstatr.o)
                                                  /home/kedou/Project/OpenRE/Tools/gcc-arm-none-eabi-5_4-2016q2/bin/../lib/gcc/arm-none-eabi/5.4.1/../../../../arm-none-eabi/lib/armv7e-m/fpu/libg.a(lib_a-closer.o)
                                                  /home/kedou/Project/OpenRE/Tools/gcc-arm-none-eabi-5_4-2016q2/bin/../lib/gcc/arm-none-eabi/5.4.1/../../../../arm-none-eabi/lib/armv7e-m/fpu/libg.a(lib_a-writer.o)
                                                  /home/kedou/Project/OpenRE/Tools/gcc-arm-none-eabi-5_4-2016q2/bin/../lib/gcc/arm-none-eabi/5.4.1/../../../../arm-none-eabi/lib/armv7e-m/fpu/libg.a(lib_a-sbrkr.o)
                                                  ../../../../1_Processor/STM32F4/BSPLIB/usart.o
fac_ms                                            ../../../../1_Processor/STM32F4/BSPLIB/delay.o
fac_us                                            ../../../../1_Processor/STM32F4/BSPLIB/delay.o
fclose                                            /home/kedou/Project/OpenRE/Tools/gcc-arm-none-eabi-5_4-2016q2/bin/../lib/gcc/arm-none-eabi/5.4.1/../../../../arm-none-eabi/lib/armv7e-m/fpu/libg.a(lib_a-fclose.o)
fflush                                            /home/kedou/Project/OpenRE/Tools/gcc-arm-none-eabi-5_4-2016q2/bin/../lib/gcc/arm-none-eabi/5.4.1/../../../../arm-none-eabi/lib/armv7e-m/fpu/libg.a(lib_a-fflush.o)
fputwc                                            /home/kedou/Project/OpenRE/Tools/gcc-arm-none-eabi-5_4-2016q2/bin/../lib/gcc/arm-none-eabi/5.4.1/../../../../arm-none-eabi/lib/armv7e-m/fpu/libg.a(lib_a-fputwc.o)
g_pfnVectors                                      ../../../../1_Processor/STM32F4/STM32F4-Discovery_FW_V1.1.0/Libraries/CMSIS/ST/STM32F4xx/Source/Templates/gcc_ride7/startup_stm32f4xx.o
localeconv                                        /home/kedou/Project/OpenRE/Tools/gcc-arm-none-eabi-5_4-2016q2/bin/../lib/gcc/arm-none-eabi/5.4.1/../../../../arm-none-eabi/lib/armv7e-m/fpu/libg.a(lib_a-locale.o)
main                                              ../src/main.o
                                                  ../../../../1_Processor/STM32F4/STM32F4-Discovery_FW_V1.1.0/Libraries/CMSIS/ST/STM32F4xx/Source/Templates/gcc_ride7/startup_stm32f4xx.o
memchr                                            /home/kedou/Project/OpenRE/Tools/gcc-arm-none-eabi-5_4-2016q2/bin/../lib/gcc/arm-none-eabi/5.4.1/../../../../arm-none-eabi/lib/armv7e-m/fpu/libg.a(lib_a-memchr.o)
                                                  /home/kedou/Project/OpenRE/Tools/gcc-arm-none-eabi-5_4-2016q2/bin/../lib/gcc/arm-none-eabi/5.4.1/../../../../arm-none-eabi/lib/armv7e-m/fpu/libg.a(lib_a-vfiprintf.o)
                                                  /home/kedou/Project/OpenRE/Tools/gcc-arm-none-eabi-5_4-2016q2/bin/../lib/gcc/arm-none-eabi/5.4.1/../../../../arm-none-eabi/lib/armv7e-m/fpu/libg.a(lib_a-fvwrite.o)
                                                  /home/kedou/Project/OpenRE/Tools/gcc-arm-none-eabi-5_4-2016q2/bin/../lib/gcc/arm-none-eabi/5.4.1/../../../../arm-none-eabi/lib/armv7e-m/fpu/libg.a(lib_a-vfprintf.o)
memcpy                                            /home/kedou/Project/OpenRE/Tools/gcc-arm-none-eabi-5_4-2016q2/bin/../lib/gcc/arm-none-eabi/5.4.1/../../../../arm-none-eabi/lib/armv7e-m/fpu/libg.a(lib_a-memcpy.o)
                                                  /home/kedou/Project/OpenRE/Tools/gcc-arm-none-eabi-5_4-2016q2/bin/../lib/gcc/arm-none-eabi/5.4.1/../../../../arm-none-eabi/lib/armv7e-m/fpu/libg.a(lib_a-mprec.o)
                                                  /home/kedou/Project/OpenRE/Tools/gcc-arm-none-eabi-5_4-2016q2/bin/../lib/gcc/arm-none-eabi/5.4.1/../../../../arm-none-eabi/lib/armv7e-m/fpu/libg.a(lib_a-fvwrite.o)
                                                  /home/kedou/Project/OpenRE/Tools/gcc-arm-none-eabi-5_4-2016q2/bin/../lib/gcc/arm-none-eabi/5.4.1/../../../../arm-none-eabi/lib/armv7e-m/fpu/libg.a(lib_a-dtoa.o)
                                                  ../src/main.o
memmove                                           /home/kedou/Project/OpenRE/Tools/gcc-arm-none-eabi-5_4-2016q2/bin/../lib/gcc/arm-none-eabi/5.4.1/../../../../arm-none-eabi/lib/armv7e-m/fpu/libg.a(lib_a-memmove.o)
                                                  /home/kedou/Project/OpenRE/Tools/gcc-arm-none-eabi-5_4-2016q2/bin/../lib/gcc/arm-none-eabi/5.4.1/../../../../arm-none-eabi/lib/armv7e-m/fpu/libg.a(lib_a-reallocr.o)
                                                  /home/kedou/Project/OpenRE/Tools/gcc-arm-none-eabi-5_4-2016q2/bin/../lib/gcc/arm-none-eabi/5.4.1/../../../../arm-none-eabi/lib/armv7e-m/fpu/libg.a(lib_a-fvwrite.o)
memset                                            /home/kedou/Project/OpenRE/Tools/gcc-arm-none-eabi-5_4-2016q2/bin/../lib/gcc/arm-none-eabi/5.4.1/../../../../arm-none-eabi/lib/armv7e-m/fpu/libg.a(lib_a-memset.o)
                                                  /home/kedou/Project/OpenRE/Tools/gcc-arm-none-eabi-5_4-2016q2/bin/../lib/gcc/arm-none-eabi/5.4.1/../../../../arm-none-eabi/lib/armv7e-m/fpu/libg.a(lib_a-callocr.o)
                                                  /home/kedou/Project/OpenRE/Tools/gcc-arm-none-eabi-5_4-2016q2/bin/../lib/gcc/arm-none-eabi/5.4.1/../../../../arm-none-eabi/lib/armv7e-m/fpu/libg.a(lib_a-findfp.o)
printf                                            /home/kedou/Project/OpenRE/Tools/gcc-arm-none-eabi-5_4-2016q2/bin/../lib/gcc/arm-none-eabi/5.4.1/../../../../arm-none-eabi/lib/armv7e-m/fpu/libg.a(lib_a-printf.o)
                                                  ../src/main.o
puts                                              /home/kedou/Project/OpenRE/Tools/gcc-arm-none-eabi-5_4-2016q2/bin/../lib/gcc/arm-none-eabi/5.4.1/../../../../arm-none-eabi/lib/armv7e-m/fpu/libg.a(lib_a-puts.o)
                                                  ../src/main.o
pwm_out_data_r                                    ../../../../1_Processor/STM32F4/BSPLIB/pwm_out.o
setlocale                                         /home/kedou/Project/OpenRE/Tools/gcc-arm-none-eabi-5_4-2016q2/bin/../lib/gcc/arm-none-eabi/5.4.1/../../../../arm-none-eabi/lib/armv7e-m/fpu/libg.a(lib_a-locale.o)
strcmp                                            /home/kedou/Project/OpenRE/Tools/gcc-arm-none-eabi-5_4-2016q2/bin/../lib/gcc/arm-none-eabi/5.4.1/../../../../arm-none-eabi/lib/armv7e-m/fpu/libg.a(lib_a-strcmp.o)
                                                  /home/kedou/Project/OpenRE/Tools/gcc-arm-none-eabi-5_4-2016q2/bin/../lib/gcc/arm-none-eabi/5.4.1/../../../../arm-none-eabi/lib/armv7e-m/fpu/libg.a(lib_a-locale.o)
strlen                                            /home/kedou/Project/OpenRE/Tools/gcc-arm-none-eabi-5_4-2016q2/bin/../lib/gcc/arm-none-eabi/5.4.1/../../../../arm-none-eabi/lib/armv7e-m/fpu/libg.a(lib_a-strlen.o)
                                                  /home/kedou/Project/OpenRE/Tools/gcc-arm-none-eabi-5_4-2016q2/bin/../lib/gcc/arm-none-eabi/5.4.1/../../../../arm-none-eabi/lib/armv7e-m/fpu/libg.a(lib_a-vfiprintf.o)
                                                  /home/kedou/Project/OpenRE/Tools/gcc-arm-none-eabi-5_4-2016q2/bin/../lib/gcc/arm-none-eabi/5.4.1/../../../../arm-none-eabi/lib/armv7e-m/fpu/libg.a(lib_a-vfprintf.o)
                                                  /home/kedou/Project/OpenRE/Tools/gcc-arm-none-eabi-5_4-2016q2/bin/../lib/gcc/arm-none-eabi/5.4.1/../../../../arm-none-eabi/lib/armv7e-m/fpu/libg.a(lib_a-puts.o)
systemInit()                                      ../src/main.o
table_week                                        ../../../../1_Processor/STM32F4/BSPLIB/rtc.o
vfiprintf                                         /home/kedou/Project/OpenRE/Tools/gcc-arm-none-eabi-5_4-2016q2/bin/../lib/gcc/arm-none-eabi/5.4.1/../../../../arm-none-eabi/lib/armv7e-m/fpu/libg.a(lib_a-vfiprintf.o)
vfprintf                                          /home/kedou/Project/OpenRE/Tools/gcc-arm-none-eabi-5_4-2016q2/bin/../lib/gcc/arm-none-eabi/5.4.1/../../../../arm-none-eabi/lib/armv7e-m/fpu/libg.a(lib_a-vfprintf.o)
wcrtomb                                           /home/kedou/Project/OpenRE/Tools/gcc-arm-none-eabi-5_4-2016q2/bin/../lib/gcc/arm-none-eabi/5.4.1/../../../../arm-none-eabi/lib/armv7e-m/fpu/libg.a(lib_a-wcrtomb.o)
